(idist
DC
p0
(dp1
S'v_nij'
p2
(lp3
(lp4
I0
aI0
aI0
aI0
aI0
aI1
aI3
aI6
aI10
aI5
aI9
aI11
aI48
aI59
aI198
aI662
aI2281
aI6686
aI15486
aI24744
aI32141
aI37252
aI43632
aI49757
aI56864
aI63841
aI67993
aI72470
aI75956
aI79196
aI81930
aI85285
aI87940
aI90204
aI94014
aI98578
aI103818
aI110290
aI115514
aI122113
aI129614
aI137182
aI145752
aI154228
aI163685
aI173480
aI182682
aI191640
aI199451
aI208929
aI215449
aI223929
aI231644
aI239750
aI247316
aI255509
aI262670
aI272027
aI279171
aI288286
aa(lp5
I0
aI0
aI0
aI0
aI0
aI1
aI0
aI16
aI1
aI2
aI4
aI73
aI149
aI74
aI149
aI383
aI1197
aI3669
aI8405
aI12928
aI17589
aI23017
aI28236
aI33965
aI39259
aI45098
aI50950
aI56660
aI62776
aI68422
aI75334
aI81629
aI88999
aI97123
aI105814
aI114284
aI124678
aI135845
aI147851
aI159627
aI171809
aI184546
aI197760
aI209367
aI223624
aI235631
aI246196
aI256759
aI266722
aI278359
aI288846
aI299819
aI309008
aI318382
aI327592
aI334436
aI342954
aI349681
aI356222
aI362224
aa(lp6
I0
aI0
aI0
aI0
aI0
aI0
aI1
aI8
aI1
aI2
aI2
aI3
aI19
aI18
aI80
aI297
aI1473
aI5139
aI11352
aI16564
aI19872
aI21982
aI23996
aI26992
aI29514
aI31338
aI32229
aI33092
aI34390
aI36454
aI38192
aI39729
aI40201
aI41026
aI42631
aI44202
aI45170
aI46447
aI48464
aI49764
aI51792
aI53696
aI56228
aI57389
aI59930
aI61711
aI63621
aI66289
aI68669
aI70107
aI72694
aI75140
aI76349
aI79312
aI81245
aI82834
aI84845
aI87724
aI90257
aI92462
aa(lp7
I0
aI0
aI0
aI0
aI0
aI0
aI0
aI0
aI1
aI0
aI1
aI3
aI40
aI17
aI23
aI77
aI440
aI1401
aI2775
aI3659
aI4277
aI4767
aI5318
aI5959
aI6493
aI6543
aI6765
aI7158
aI7594
aI7610
aI7798
aI7904
aI8335
aI8639
aI8562
aI9083
aI9610
aI10142
aI10512
aI10598
aI11254
aI11988
aI12730
aI13061
aI13597
aI13974
aI14395
aI14598
aI15155
aI15222
aI15651
aI16503
aI16699
aI17006
aI17399
aI18278
aI18322
aI18994
aI19847
aI20036
aa(lp8
I0
aI0
aI0
aI0
aI0
aI0
aI0
aI0
aI0
aI0
aI0
aI1
aI3
aI7
aI14
aI29
aI123
aI348
aI730
aI994
aI1289
aI1708
aI1920
aI2044
aI2116
aI2131
aI2309
aI2466
aI2779
aI2865
aI3083
aI3008
aI3260
aI3380
aI3831
aI4026
aI4123
aI4402
aI5151
aI5221
aI5531
aI5648
aI6020
aI6158
aI6540
aI6867
aI6696
aI6948
aI7137
aI7774
aI8000
aI8355
aI8579
aI8907
aI9391
aI9851
aI10331
aI10686
aI11087
aI11299
aa(lp9
I0
aI0
aI0
aI0
aI0
aI0
aI0
aI13
aI3
aI7
aI2
aI22
aI68
aI17
aI24
aI59
aI211
aI601
aI1186
aI1586
aI1890
aI2114
aI2533
aI2828
aI3321
aI3433
aI3857
aI4341
aI4499
aI4572
aI4734
aI5192
aI5371
aI5224
aI5348
aI5497
aI5820
aI6314
aI6686
aI6624
aI7100
aI7071
aI7495
aI7709
aI7865
aI7973
aI8341
aI8729
aI8705
aI9290
aI9549
aI9963
aI10450
aI11145
aI11836
aI12488
aI13392
aI14831
aI16237
aI17479
aa(lp10
I0
aI0
aI0
aI0
aI0
aI1
aI56
aI37
aI2
aI3
aI4
aI27
aI83
aI51
aI152
aI336
aI663
aI1140
aI1722
aI1994
aI2147
aI2487
aI2800
aI3244
aI3837
aI4427
aI4388
aI4533
aI4861
aI5157
aI5397
aI5296
aI5809
aI6035
aI6358
aI6546
aI6807
aI7247
aI7492
aI7761
aI8125
aI8235
aI8663
aI8884
aI9282
aI9576
aI9707
aI10310
aI10467
aI10552
aI11044
aI11701
aI12047
aI12353
aI12457
aI13281
aI13984
aI14537
aI14845
aI16049
aa(lp11
I0
aI0
aI0
aI0
aI0
aI0
aI6
aI16
aI2
aI0
aI0
aI8
aI31
aI58
aI203
aI511
aI1149
aI2470
aI4329
aI5821
aI7443
aI8930
aI10759
aI13031
aI15497
aI18196
aI20671
aI23964
aI27693
aI30850
aI34825
aI38633
aI42792
aI47337
aI51515
aI55757
aI61395
aI66504
aI70903
aI76473
aI81875
aI87127
aI93099
aI99200
aI104698
aI110264
aI116123
aI122155
aI127515
aI134162
aI137697
aI141369
aI145052
aI149251
aI151937
aI156473
aI159227
aI162147
aI165073
aI169948
aa(lp12
I0
aI0
aI0
aI0
aI0
aI0
aI0
aI0
aI0
aI1
aI4
aI4
aI7
aI10
aI16
aI18
aI40
aI87
aI77
aI140
aI279
aI385
aI392
aI415
aI407
aI433
aI401
aI440
aI449
aI401
aI499
aI500
aI478
aI539
aI438
aI484
aI481
aI481
aI450
aI557
aI518
aI448
aI526
aI535
aI559
aI575
aI584
aI503
aI548
aI562
aI519
aI524
aI507
aI500
aI476
aI510
aI547
aI560
aI605
aI581
aa(lp13
I0
aI0
aI0
aI0
aI0
aI0
aI1
aI2
aI1
aI0
aI2
aI8
aI19
aI74
aI203
aI595
aI1390
aI2054
aI2193
aI2342
aI2544
aI2567
aI2997
aI3630
aI3984
aI4291
aI4614
aI5018
aI5226
aI5558
aI5818
aI6266
aI6456
aI7134
aI7875
aI8319
aI8659
aI9215
aI9760
aI10203
aI10918
aI11249
aI11556
aI11774
aI12165
aI12934
aI13022
aI13728
aI14249
aI14991
aI15106
aI15955
aI16095
aI16778
aI17339
aI18634
aI19091
aI20287
aI20852
aI21720
aa(lp14
I0
aI0
aI0
aI0
aI0
aI1
aI1
aI3
aI3
aI0
aI4
aI7
aI47
aI173
aI500
aI1480
aI3424
aI5857
aI7435
aI8241
aI9121
aI9729
aI10817
aI12125
aI13870
aI15822
aI17877
aI19868
aI22611
aI25632
aI28771
aI32325
aI36777
aI41636
aI46720
aI52581
aI58845
aI64744
aI70883
aI77140
aI81718
aI86484
aI91175
aI95969
aI99794
aI105201
aI108557
aI112653
aI117287
aI121284
aI126122
aI130341
aI135776
aI141237
aI146090
aI150715
aI155667
aI160644
aI166099
aI169442
aa(lp15
I0
aI0
aI0
aI0
aI0
aI1
aI43
aI127
aI7
aI6
aI11
aI72
aI127
aI151
aI360
aI832
aI1735
aI2843
aI3423
aI3744
aI4150
aI4497
aI4919
aI5522
aI6147
aI5905
aI6626
aI6714
aI7191
aI7500
aI7936
aI8334
aI8440
aI8768
aI9300
aI9899
aI10244
aI10860
aI11358
aI11970
aI12547
aI13248
aI13985
aI14950
aI15549
aI16135
aI16939
aI17114
aI18258
aI18824
aI19573
aI20769
aI22046
aI22463
aI23246
aI24085
aI24917
aI25679
aI26476
aI26769
aa(lp16
I0
aI0
aI0
aI0
aI0
aI16
aI17
aI20
aI24
aI20
aI23
aI51
aI107
aI366
aI709
aI1455
aI3085
aI5356
aI7351
aI8336
aI8122
aI8487
aI9208
aI10033
aI10905
aI11195
aI11251
aI11551
aI12136
aI12872
aI13989
aI14683
aI15680
aI16334
aI17835
aI18933
aI20122
aI21669
aI22847
aI23902
aI25922
aI27106
aI28424
aI29856
aI31171
aI32198
aI33620
aI34504
aI36624
aI38524
aI39221
aI41469
aI42870
aI43786
aI45329
aI48124
aI49569
aI51962
aI53215
aI55007
aa(lp17
I0
aI0
aI0
aI0
aI0
aI0
aI0
aI0
aI1
aI2
aI1
aI0
aI2
aI5
aI9
aI30
aI71
aI264
aI534
aI864
aI1028
aI1236
aI1356
aI1480
aI1630
aI1830
aI1951
aI2042
aI1981
aI1961
aI1867
aI2076
aI1974
aI1971
aI2079
aI2255
aI2344
aI2630
aI2702
aI2733
aI2928
aI2967
aI3155
aI3304
aI3393
aI3480
aI3593
aI3682
aI3770
aI4084
aI4337
aI4208
aI4152
aI4388
aI4424
aI4782
aI4981
aI5250
aI5295
aI5259
aa(lp18
I0
aI0
aI0
aI0
aI0
aI0
aI0
aI1
aI17
aI43
aI7
aI7
aI2
aI11
aI27
aI35
aI86
aI172
aI245
aI379
aI345
aI396
aI375
aI446
aI495
aI447
aI463
aI487
aI501
aI478
aI447
aI488
aI494
aI541
aI592
aI657
aI726
aI795
aI809
aI897
aI919
aI929
aI1070
aI1146
aI1135
aI1112
aI1109
aI1236
aI1207
aI1276
aI1200
aI1262
aI1326
aI1433
aI1625
aI1533
aI1486
aI1583
aI1558
aI1579
aa(lp19
I0
aI0
aI0
aI0
aI0
aI0
aI0
aI12
aI4
aI1
aI1
aI0
aI5
aI9
aI15
aI29
aI148
aI326
aI522
aI671
aI714
aI853
aI1031
aI1345
aI1625
aI1719
aI1878
aI2012
aI2169
aI2389
aI2715
aI2767
aI2794
aI2953
aI3226
aI3388
aI3484
aI3902
aI3758
aI4067
aI4323
aI4490
aI4638
aI4933
aI5493
aI5682
aI5966
aI6273
aI6456
aI6890
aI7134
aI7488
aI8058
aI8524
aI8524
aI8675
aI8992
aI9153
aI9454
aI9714
aa(lp20
I0
aI0
aI0
aI0
aI0
aI253
aI153
aI86
aI158
aI347
aI807
aI1647
aI4589
aI12403
aI27895
aI47973
aI67574
aI85269
aI100808
aI119608
aI140044
aI158159
aI177255
aI196287
aI213675
aI232714
aI252425
aI273985
aI297439
aI319407
aI342531
aI366077
aI391249
aI416525
aI441542
aI469383
aI494709
aI524916
aI552897
aI583395
aI614024
aI649082
aI682485
aI714871
aI752332
aI790288
aI827840
aI864521
aI903413
aI939842
aI975442
aI1010332
aI1047430
aI1087197
aI1123213
aI1163394
aI1200041
aI1238701
aI1275356
aI1309541
aa(lp21
I0
aI0
aI0
aI0
aI0
aI0
aI1
aI8
aI0
aI0
aI4
aI59
aI109
aI53
aI118
aI419
aI1678
aI5362
aI12276
aI19429
aI25838
aI31674
aI38257
aI45387
aI51627
aI58157
aI65165
aI71472
aI76869
aI80963
aI85734
aI88992
aI94327
aI100014
aI104860
aI110719
aI117105
aI125538
aI133386
aI142275
aI151953
aI162014
aI173065
aI181258
aI192917
aI204025
aI214243
aI226105
aI238314
aI250287
aI260423
aI270966
aI279881
aI291547
aI300517
aI309097
aI318490
aI330516
aI339434
aI351310
aa(lp22
I0
aI0
aI0
aI0
aI0
aI0
aI0
aI12
aI7
aI6
aI20
aI1896
aI2381
aI340
aI625
aI1487
aI4216
aI9001
aI16670
aI20662
aI30290
aI43406
aI54424
aI66265
aI73732
aI79594
aI86819
aI92372
aI102359
aI112390
aI121248
aI126888
aI135350
aI144849
aI153997
aI167808
aI180890
aI194379
aI207660
aI221938
aI237459
aI254836
aI272532
aI289190
aI305877
aI322397
aI338991
aI353114
aI369609
aI384466
aI397299
aI411614
aI425142
aI436575
aI448836
aI459564
aI470451
aI481378
aI490424
aI497494
aa(lp23
I0
aI0
aI0
aI0
aI0
aI0
aI0
aI1
aI0
aI1
aI1
aI3
aI8
aI14
aI51
aI235
aI1195
aI5058
aI11927
aI17101
aI21026
aI23789
aI27543
aI30423
aI32522
aI34995
aI36276
aI37572
aI39343
aI41809
aI43463
aI44746
aI45817
aI47202
aI49076
aI50477
aI51705
aI53637
aI54408
aI55632
aI58280
aI59636
aI61732
aI63707
aI65172
aI68437
aI70150
aI72508
aI74941
aI77523
aI79620
aI82745
aI85872
aI88547
aI91208
aI94507
aI96578
aI100937
aI104263
aI108585
aa(lp24
I0
aI0
aI0
aI0
aI0
aI0
aI0
aI0
aI2
aI0
aI0
aI6
aI10
aI4
aI22
aI121
aI476
aI1638
aI3675
aI5145
aI6505
aI8010
aI8999
aI10485
aI10919
aI11209
aI11338
aI11697
aI12617
aI13097
aI13419
aI13086
aI13361
aI12982
aI13133
aI13785
aI14456
aI14755
aI14980
aI15642
aI16229
aI16583
aI17353
aI17478
aI17874
aI18527
aI19120
aI19457
aI20035
aI20449
aI20984
aI21477
aI21713
aI22369
aI23152
aI23631
aI23926
aI24454
aI25208
aI26102
aa(lp25
I0
aI0
aI0
aI0
aI0
aI0
aI0
aI0
aI0
aI0
aI1
aI0
aI2
aI10
aI36
aI83
aI256
aI787
aI2240
aI3790
aI5478
aI6093
aI5713
aI5283
aI5183
aI5780
aI6310
aI6746
aI6673
aI6368
aI6965
aI7491
aI7539
aI7674
aI8167
aI8413
aI8293
aI8580
aI9438
aI9946
aI10700
aI11096
aI11983
aI12238
aI12980
aI13425
aI13749
aI14667
aI14664
aI14687
aI14843
aI15385
aI16257
aI17119
aI16958
aI16870
aI17627
aI18622
aI18987
aI19345
aa(lp26
I0
aI0
aI0
aI0
aI0
aI0
aI2
aI4
aI2
aI1
aI0
aI59
aI498
aI46
aI42
aI103
aI344
aI935
aI1742
aI2611
aI3853
aI5141
aI6600
aI7096
aI7684
aI8007
aI8117
aI8795
aI8891
aI9093
aI9203
aI9153
aI9382
aI9588
aI9949
aI10044
aI10430
aI10975
aI11325
aI11830
aI12032
aI12484
aI12630
aI13017
aI13274
aI13496
aI13473
aI13667
aI13879
aI14181
aI14885
aI15218
aI15594
aI16160
aI16971
aI18294
aI19477
aI21172
aI22348
aI23806
aa(lp27
I0
aI0
aI0
aI0
aI0
aI0
aI440
aI18
aI3
aI1
aI2
aI19
aI86
aI90
aI372
aI746
aI1608
aI3147
aI5243
aI7464
aI7606
aI6980
aI7022
aI7816
aI8727
aI9847
aI10355
aI10737
aI11257
aI11547
aI11772
aI11955
aI12092
aI12246
aI12739
aI13579
aI14267
aI14743
aI15196
aI15699
aI15555
aI15879
aI16249
aI16265
aI16225
aI16624
aI17084
aI17594
aI17936
aI18223
aI19103
aI19433
aI19996
aI20634
aI20777
aI21465
aI21802
aI22237
aI23474
aI24422
aa(lp28
I0
aI0
aI0
aI0
aI0
aI0
aI8
aI13
aI0
aI2
aI1
aI15
aI35
aI106
aI431
aI1015
aI2252
aI4935
aI8897
aI13269
aI15124
aI16744
aI19746
aI24514
aI30107
aI34826
aI39068
aI43210
aI47185
aI51552
aI55316
aI60235
aI64667
aI68939
aI74927
aI81644
aI85777
aI91648
aI99495
aI107127
aI114515
aI120203
aI127354
aI134942
aI143499
aI150558
aI157672
aI165536
aI172667
aI181166
aI186441
aI193745
aI197071
aI202691
aI208308
aI213465
aI219256
aI225248
aI231205
aI234278
aa(lp29
I0
aI0
aI0
aI0
aI0
aI0
aI0
aI0
aI0
aI6
aI3
aI12
aI18
aI45
aI176
aI320
aI542
aI463
aI322
aI401
aI493
aI648
aI614
aI893
aI785
aI743
aI784
aI798
aI781
aI832
aI828
aI811
aI852
aI1114
aI1094
aI1017
aI844
aI858
aI893
aI920
aI1139
aI1140
aI981
aI896
aI904
aI848
aI820
aI1031
aI892
aI800
aI759
aI716
aI664
aI669
aI667
aI714
aI652
aI703
aI674
aI657
aa(lp30
I0
aI0
aI0
aI0
aI0
aI0
aI1
aI1
aI0
aI5
aI5
aI12
aI44
aI171
aI625
aI2210
aI5833
aI8317
aI7911
aI7745
aI8171
aI8017
aI8685
aI10266
aI10840
aI10942
aI11950
aI12507
aI12750
aI13519
aI13764
aI13590
aI14453
aI14689
aI15609
aI16788
aI17607
aI18336
aI19579
aI20624
aI21151
aI21932
aI23110
aI23858
aI24774
aI25871
aI25982
aI26685
aI27764
aI29276
aI30903
aI30774
aI30922
aI31667
aI32543
aI33842
aI34884
aI35294
aI35020
aI36223
aa(lp31
I0
aI0
aI0
aI0
aI0
aI0
aI1
aI5
aI1
aI2
aI5
aI26
aI90
aI429
aI1656
aI3974
aI8067
aI11232
aI13102
aI14502
aI15330
aI16547
aI17813
aI20763
aI22398
aI24583
aI27485
aI30829
aI36046
aI41424
aI45960
aI50013
aI56556
aI62283
aI68760
aI76617
aI83965
aI91238
aI98486
aI104940
aI111066
aI117587
aI123677
aI129444
aI135253
aI142815
aI149293
aI156078
aI161897
aI168893
aI172908
aI180133
aI187076
aI192566
aI199226
aI205325
aI211387
aI218378
aI224856
aI233269
aa(lp32
I0
aI0
aI0
aI0
aI0
aI11
aI814
aI1893
aI36
aI15
aI34
aI1247
aI1718
aI546
aI2083
aI2511
aI3861
aI6961
aI9528
aI8161
aI9267
aI9535
aI10049
aI12214
aI13106
aI13448
aI13631
aI14896
aI16082
aI16015
aI16401
aI17182
aI17455
aI17902
aI18739
aI19442
aI19981
aI20755
aI21729
aI22714
aI24060
aI24757
aI25755
aI26143
aI27193
aI27325
aI28181
aI29235
aI30241
aI30864
aI31839
aI32040
aI33112
aI33664
aI34999
aI35049
aI36202
aI36853
aI38174
aI39027
aa(lp33
I0
aI0
aI0
aI0
aI0
aI6
aI15
aI24
aI17
aI33
aI37
aI92
aI261
aI690
aI1671
aI3963
aI9102
aI16397
aI22817
aI24724
aI24139
aI23800
aI24829
aI27046
aI29933
aI31202
aI31298
aI32541
aI33850
aI34543
aI36053
aI37299
aI38767
aI40614
aI44050
aI46748
aI49771
aI52510
aI55187
aI57292
aI59265
aI62507
aI63534
aI64939
aI65936
aI68400
aI69651
aI72179
aI75345
aI76682
aI78359
aI81146
aI82538
aI85087
aI88053
aI90685
aI93373
aI95495
aI98011
aI100941
aa(lp34
I0
aI0
aI0
aI0
aI0
aI0
aI0
aI0
aI0
aI1
aI0
aI0
aI3
aI10
aI8
aI16
aI53
aI203
aI465
aI802
aI863
aI916
aI1124
aI1170
aI1339
aI1462
aI1414
aI1483
aI1682
aI1654
aI1813
aI1691
aI1750
aI1952
aI2064
aI2005
aI2128
aI2288
aI2377
aI2518
aI2870
aI2999
aI3256
aI3408
aI3543
aI3699
aI3778
aI4027
aI4216
aI4232
aI4420
aI4593
aI4945
aI5078
aI5176
aI5504
aI5542
aI5972
aI6103
aI6422
aa(lp35
I0
aI0
aI0
aI0
aI0
aI0
aI0
aI0
aI38
aI29
aI4
aI2
aI5
aI74
aI65
aI173
aI98
aI163
aI261
aI367
aI410
aI451
aI535
aI504
aI539
aI531
aI531
aI477
aI481
aI505
aI572
aI583
aI593
aI607
aI635
aI702
aI739
aI842
aI947
aI931
aI1079
aI1134
aI1281
aI1201
aI1264
aI1369
aI1542
aI1547
aI1587
aI1715
aI1730
aI1743
aI1999
aI2017
aI2111
aI2026
aI2297
aI2203
aI2291
aI2403
aa(lp36
I0
aI0
aI0
aI0
aI0
aI0
aI2
aI0
aI2
aI0
aI0
aI2
aI5
aI20
aI21
aI94
aI288
aI547
aI836
aI1057
aI1252
aI1489
aI1637
aI1905
aI2388
aI2743
aI3050
aI3496
aI3859
aI4083
aI4219
aI4353
aI4514
aI4483
aI4830
aI4903
aI5220
aI5470
aI5731
aI6251
aI6698
aI7043
aI7520
aI7599
aI8160
aI8228
aI8856
aI9682
aI10074
aI10481
aI11177
aI11318
aI11682
aI11646
aI12010
aI12435
aI12860
aI13422
aI13505
aI13938
aa(lp37
I0
aI0
aI0
aI0
aI0
aI167
aI1557
aI517
aI520
aI1222
aI2737
aI5404
aI14299
aI26634
aI47718
aI71860
aI95559
aI119115
aI146148
aI176848
aI203565
aI228958
aI256980
aI282372
aI306794
aI329743
aI358739
aI389576
aI420069
aI455461
aI491703
aI525266
aI556713
aI588319
aI622268
aI658829
aI696412
aI734956
aI777680
aI818148
aI861108
aI905381
aI946826
aI990071
aI1032449
aI1082604
aI1129519
aI1177153
aI1230638
aI1279569
aI1326577
aI1371623
aI1419262
aI1465915
aI1516542
aI1564964
aI1613357
aI1664404
aI1717551
aI1763150
aa(lp38
I0
aI0
aI0
aI0
aI0
aI0
aI1
aI0
aI1
aI3
aI2
aI5
aI12
aI20
aI74
aI335
aI1762
aI6927
aI15013
aI21016
aI25056
aI28347
aI32056
aI36136
aI39740
aI43260
aI46055
aI47529
aI49359
aI52426
aI55323
aI57444
aI58391
aI59746
aI61605
aI64929
aI68577
aI72762
aI76482
aI80342
aI85378
aI91203
aI96423
aI102072
aI108446
aI114196
aI120649
aI127777
aI134827
aI140932
aI147512
aI152118
aI157615
aI163384
aI168426
aI173503
aI180419
aI187505
aI192419
aI198461
aa(lp39
I0
aI0
aI0
aI0
aI0
aI0
aI0
aI0
aI0
aI2
aI0
aI2
aI1
aI12
aI43
aI186
aI1019
aI3782
aI8615
aI13413
aI17620
aI20920
aI24011
aI28077
aI31995
aI37394
aI41760
aI47246
aI51796
aI57148
aI61825
aI66989
aI72874
aI79005
aI86191
aI93556
aI100562
aI110151
aI118732
aI127692
aI137375
aI145376
aI152573
aI159889
aI167897
aI176596
aI185430
aI194353
aI200984
aI206791
aI214062
aI221241
aI227823
aI236439
aI241639
aI247931
aI252312
aI259150
aI264500
aI270138
aa(lp40
I0
aI0
aI0
aI0
aI0
aI0
aI0
aI0
aI0
aI0
aI0
aI0
aI4
aI12
aI53
aI221
aI1258
aI4563
aI8696
aI11473
aI13227
aI14136
aI15893
aI17248
aI18511
aI19629
aI19973
aI20983
aI22233
aI24527
aI26346
aI27473
aI28265
aI28547
aI28790
aI29489
aI30131
aI31033
aI32002
aI32406
aI33926
aI35489
aI36236
aI37675
aI39640
aI40412
aI43093
aI44447
aI46105
aI47597
aI48882
aI50109
aI51386
aI53460
aI54807
aI56828
aI58354
aI60568
aI61228
aI62897
aa(lp41
I0
aI0
aI0
aI0
aI0
aI0
aI0
aI0
aI0
aI0
aI0
aI2
aI1
aI4
aI7
aI64
aI372
aI1196
aI2016
aI2271
aI2718
aI2873
aI3213
aI3515
aI3945
aI4089
aI4295
aI4605
aI5100
aI5565
aI5843
aI5921
aI6027
aI6455
aI6764
aI6799
aI7350
aI7690
aI7808
aI8159
aI8716
aI8916
aI9443
aI9797
aI9925
aI9974
aI10225
aI10484
aI10869
aI11425
aI11747
aI12223
aI12327
aI13087
aI13752
aI14008
aI14501
aI15036
aI15250
aI15531
aa(lp42
I0
aI0
aI0
aI0
aI0
aI0
aI0
aI0
aI0
aI0
aI0
aI0
aI0
aI0
aI3
aI15
aI59
aI207
aI447
aI668
aI848
aI958
aI1147
aI1346
aI1412
aI1604
aI2041
aI2160
aI2382
aI2954
aI3167
aI3297
aI3579
aI3763
aI3905
aI4336
aI4801
aI5078
aI4942
aI5361
aI5451
aI5687
aI5833
aI5862
aI6170
aI6346
aI6619
aI6801
aI7035
aI7478
aI7712
aI7776
aI7762
aI8026
aI8186
aI8289
aI8596
aI9076
aI9006
aI9205
aa(lp43
I0
aI0
aI0
aI0
aI0
aI0
aI0
aI0
aI0
aI0
aI2
aI4
aI1
aI2
aI8
aI39
aI186
aI552
aI951
aI1110
aI1402
aI1564
aI1784
aI2050
aI2213
aI2367
aI2606
aI2759
aI2836
aI3120
aI3289
aI3300
aI3494
aI3487
aI3824
aI3948
aI4314
aI4533
aI4606
aI4880
aI5002
aI5320
aI5422
aI5988
aI6226
aI6490
aI6727
aI6769
aI7118
aI7169
aI7350
aI7386
aI7728
aI8153
aI8624
aI9091
aI9842
aI10474
aI11544
aI12513
aa(lp44
I0
aI0
aI0
aI0
aI0
aI0
aI0
aI0
aI2
aI0
aI0
aI3
aI12
aI24
aI41
aI154
aI440
aI868
aI1163
aI1527
aI1690
aI1843
aI2144
aI2265
aI2653
aI2933
aI2813
aI3157
aI3368
aI3509
aI3893
aI3861
aI4081
aI4529
aI4683
aI4910
aI4964
aI5134
aI5355
aI5647
aI6122
aI6259
aI6705
aI7164
aI7515
aI7663
aI7916
aI7951
aI8347
aI8309
aI8613
aI9043
aI9295
aI9700
aI10177
aI10731
aI10743
aI11249
aI11658
aI12638
aa(lp45
I0
aI0
aI0
aI0
aI0
aI0
aI0
aI0
aI0
aI0
aI0
aI1
aI8
aI18
aI61
aI260
aI1059
aI2558
aI4078
aI5610
aI7022
aI8545
aI9781
aI11630
aI14205
aI15831
aI18121
aI20098
aI22484
aI25134
aI28691
aI31843
aI35248
aI38888
aI42962
aI46547
aI50518
aI54753
aI58921
aI62065
aI64911
aI69129
aI73106
aI77708
aI82265
aI85583
aI89997
aI93589
aI96071
aI99089
aI102713
aI105664
aI108410
aI111085
aI114368
aI117222
aI118594
aI121257
aI123063
aI124420
aa(lp46
I0
aI0
aI0
aI0
aI0
aI0
aI0
aI0
aI0
aI0
aI0
aI0
aI0
aI0
aI1
aI4
aI28
aI25
aI52
aI89
aI182
aI260
aI208
aI281
aI276
aI290
aI351
aI319
aI340
aI310
aI324
aI306
aI319
aI288
aI328
aI348
aI308
aI313
aI279
aI300
aI347
aI353
aI331
aI377
aI416
aI360
aI374
aI365
aI343
aI378
aI348
aI363
aI355
aI368
aI329
aI414
aI365
aI369
aI391
aI372
aa(lp47
I0
aI0
aI0
aI0
aI0
aI0
aI0
aI0
aI0
aI0
aI0
aI0
aI0
aI26
aI98
aI322
aI720
aI993
aI1159
aI1356
aI1544
aI1945
aI2297
aI2807
aI3367
aI3719
aI4040
aI4664
aI5439
aI5595
aI5995
aI6315
aI6705
aI7400
aI8308
aI8691
aI9018
aI9254
aI10130
aI10414
aI10616
aI10597
aI11211
aI11489
aI12039
aI12709
aI12806
aI13247
aI13351
aI13579
aI13661
aI14357
aI14954
aI15133
aI15405
aI16029
aI16373
aI17083
aI17353
aI18083
aa(lp48
I0
aI0
aI0
aI0
aI0
aI0
aI0
aI0
aI0
aI0
aI1
aI0
aI14
aI56
aI271
aI1119
aI2848
aI4227
aI5437
aI6749
aI7928
aI8715
aI9726
aI10900
aI12163
aI13901
aI15361
aI17533
aI19974
aI22541
aI25227
aI27267
aI29393
aI32152
aI37088
aI41683
aI47072
aI51381
aI56253
aI60130
aI63323
aI67024
aI70664
aI73894
aI77177
aI79574
aI82242
aI85524
aI88593
aI91340
aI94891
aI99345
aI101817
aI105842
aI109081
aI112341
aI115128
aI119226
aI122489
aI123706
aa(lp49
I0
aI0
aI0
aI0
aI0
aI0
aI0
aI0
aI0
aI0
aI0
aI0
aI7
aI46
aI152
aI435
aI1092
aI1666
aI2215
aI2433
aI2631
aI2949
aI3142
aI3833
aI4184
aI4377
aI4648
aI5070
aI5618
aI6077
aI6355
aI6305
aI6615
aI6819
aI6915
aI7349
aI7715
aI8207
aI8465
aI8927
aI9154
aI9728
aI9953
aI10374
aI10882
aI11120
aI11597
aI11997
aI12749
aI13373
aI13771
aI14465
aI14727
aI15641
aI16294
aI17328
aI17540
aI18085
aI18700
aI18990
aa(lp50
I0
aI0
aI0
aI0
aI0
aI6
aI7
aI5
aI6
aI12
aI18
aI18
aI33
aI98
aI240
aI791
aI2296
aI4082
aI5478
aI6390
aI6708
aI7126
aI7807
aI8614
aI9432
aI9589
aI9943
aI10508
aI12096
aI13081
aI13963
aI14679
aI14750
aI15396
aI16350
aI17679
aI18638
aI19759
aI21131
aI21899
aI22864
aI24163
aI25485
aI26507
aI27162
aI28187
aI29557
aI30473
aI31850
aI32710
aI33723
aI34811
aI35559
aI37211
aI38562
aI40042
aI41430
aI42114
aI43446
aI44887
aa(lp51
I0
aI0
aI0
aI0
aI0
aI0
aI0
aI0
aI0
aI0
aI0
aI0
aI1
aI1
aI4
aI15
aI65
aI222
aI511
aI784
aI969
aI1146
aI1275
aI1482
aI1445
aI1521
aI1607
aI1691
aI1922
aI1923
aI1994
aI2008
aI1918
aI1834
aI1744
aI1753
aI1726
aI1809
aI1915
aI1919
aI2055
aI2268
aI2563
aI2801
aI2709
aI2699
aI2719
aI2927
aI3152
aI3326
aI3340
aI3262
aI3420
aI3759
aI3979
aI4187
aI4055
aI4085
aI4143
aI4661
aa(lp52
I0
aI0
aI0
aI0
aI0
aI0
aI0
aI0
aI0
aI0
aI0
aI0
aI0
aI3
aI7
aI15
aI55
aI117
aI208
aI283
aI290
aI280
aI259
aI299
aI273
aI309
aI296
aI312
aI349
aI417
aI382
aI404
aI436
aI512
aI476
aI495
aI500
aI561
aI660
aI683
aI666
aI674
aI728
aI735
aI781
aI775
aI842
aI824
aI900
aI964
aI1029
aI1107
aI1178
aI1214
aI1256
aI1310
aI1358
aI1517
aI1648
aI1631
aa(lp53
I0
aI0
aI0
aI0
aI0
aI0
aI0
aI0
aI0
aI0
aI0
aI0
aI0
aI1
aI3
aI19
aI86
aI238
aI385
aI531
aI511
aI660
aI880
aI1121
aI1281
aI1531
aI1558
aI1706
aI1865
aI2089
aI2011
aI2165
aI2277
aI2631
aI2595
aI2703
aI2807
aI2929
aI3064
aI3062
aI3156
aI3325
aI3700
aI3874
aI4109
aI4253
aI4457
aI4574
aI4926
aI5161
aI5577
aI5772
aI6003
aI6497
aI6710
aI6862
aI7163
aI7133
aI7231
aI7593
aa(lp54
I0
aI0
aI0
aI0
aI0
aI19
aI25
aI14
aI38
aI74
aI228
aI893
aI3567
aI12234
aI26029
aI40739
aI54181
aI65643
aI76522
aI87972
aI101703
aI115545
aI131104
aI144321
aI156867
aI172922
aI190830
aI208849
aI224710
aI240839
aI257630
aI273439
aI291136
aI308012
aI325701
aI344524
aI365448
aI385510
aI408243
aI429894
aI453691
aI477524
aI500695
aI523404
aI549249
aI575403
aI600080
aI626162
aI654328
aI682284
aI710354
aI737641
aI762098
aI789308
aI815730
aI841907
aI868446
aI896602
aI925899
aI953560
aa(lp55
I0
aI0
aI0
aI0
aI0
aI0
aI0
aI0
aI0
aI0
aI0
aI2
aI8
aI13
aI31
aI169
aI1633
aI6606
aI12433
aI16769
aI20368
aI22890
aI26037
aI28356
aI30835
aI32399
aI33738
aI35990
aI37538
aI39846
aI40120
aI40533
aI41562
aI44106
aI46022
aI49458
aI52724
aI56326
aI58618
aI62384
aI66044
aI69789
aI74323
aI80394
aI84380
aI88621
aI93131
aI97795
aI101923
aI105820
aI110815
aI116488
aI120228
aI125373
aI128406
aI133156
aI136675
aI141100
aI145478
aI150360
aa(lp56
I0
aI0
aI0
aI0
aI0
aI0
aI0
aI0
aI2
aI0
aI1
aI6
aI10
aI7
aI13
aI95
aI692
aI2957
aI6712
aI9790
aI13874
aI18215
aI23840
aI27908
aI29907
aI30187
aI31913
aI35625
aI41929
aI47567
aI52480
aI56946
aI60358
aI64092
aI69182
aI76293
aI82030
aI89445
aI95100
aI102609
aI109760
aI116522
aI123946
aI128545
aI133239
aI138338
aI143576
aI147652
aI151834
aI156125
aI161716
aI164552
aI169306
aI174557
aI178307
aI181571
aI183980
aI187509
aI191476
aI195575
aa(lp57
I0
aI0
aI0
aI0
aI0
aI0
aI0
aI0
aI0
aI0
aI0
aI4
aI1
aI5
aI19
aI187
aI1679
aI5699
aI9416
aI11044
aI11468
aI11940
aI11856
aI12061
aI12516
aI13163
aI13382
aI13466
aI14189
aI15143
aI16260
aI16667
aI16625
aI16489
aI16747
aI17163
aI17693
aI18579
aI18969
aI19726
aI20350
aI21349
aI21955
aI23190
aI23574
aI24802
aI25932
aI27089
aI28352
aI29321
aI30820
aI32078
aI33667
aI35114
aI35836
aI37004
aI38648
aI40230
aI41309
aI44031
aa(lp58
I0
aI0
aI0
aI0
aI0
aI0
aI0
aI0
aI0
aI0
aI0
aI0
aI1
aI2
aI2
aI40
aI419
aI1285
aI1795
aI2136
aI2363
aI2445
aI2500
aI2801
aI2894
aI2999
aI3043
aI3201
aI3507
aI3632
aI3902
aI4122
aI3964
aI4114
aI4170
aI4490
aI4625
aI5023
aI4947
aI5117
aI5599
aI5953
aI5972
aI6148
aI6337
aI6797
aI6983
aI7220
aI7545
aI7916
aI8220
aI8383
aI8457
aI8772
aI8995
aI9337
aI9503
aI10140
aI10363
aI10808
aa(lp59
I0
aI0
aI0
aI0
aI0
aI0
aI0
aI0
aI0
aI0
aI0
aI0
aI0
aI0
aI1
aI6
aI49
aI161
aI311
aI584
aI984
aI1140
aI1672
aI1706
aI1445
aI1362
aI1424
aI1544
aI2024
aI2487
aI2838
aI2635
aI2462
aI2560
aI2607
aI2973
aI3356
aI3469
aI3666
aI4259
aI4473
aI4515
aI4418
aI4675
aI4597
aI4751
aI5134
aI5162
aI5311
aI5752
aI5835
aI6003
aI6433
aI6466
aI6634
aI6938
aI7230
aI7576
aI7518
aI7645
aa(lp60
I0
aI0
aI0
aI0
aI0
aI0
aI0
aI0
aI2
aI2
aI0
aI0
aI0
aI1
aI4
aI34
aI194
aI633
aI1268
aI1642
aI1772
aI1774
aI1963
aI2367
aI2355
aI2062
aI2068
aI2235
aI2409
aI2416
aI2531
aI2567
aI2655
aI2753
aI3095
aI3195
aI3137
aI3453
aI3421
aI3628
aI3982
aI4182
aI4426
aI4707
aI4842
aI5133
aI5311
aI5417
aI5724
aI5973
aI6568
aI6902
aI7000
aI7172
aI7100
aI7300
aI7413
aI8106
aI8726
aI9462
aa(lp61
I0
aI0
aI0
aI0
aI0
aI0
aI0
aI0
aI0
aI0
aI0
aI6
aI6
aI11
aI102
aI256
aI619
aI1055
aI1434
aI1740
aI1903
aI1790
aI2155
aI2283
aI2390
aI2582
aI2758
aI2928
aI3016
aI3253
aI3203
aI3087
aI3154
aI3421
aI3771
aI3939
aI4164
aI4286
aI4541
aI4815
aI5002
aI5154
aI5362
aI5616
aI6052
aI6420
aI6840
aI7020
aI7486
aI7550
aI7936
aI8228
aI8178
aI8608
aI8885
aI9094
aI9712
aI10007
aI10069
aI10203
aa(lp62
I0
aI0
aI0
aI0
aI0
aI0
aI0
aI0
aI0
aI0
aI1
aI0
aI3
aI10
aI49
aI203
aI1038
aI2883
aI5964
aI7498
aI7374
aI6751
aI7666
aI9184
aI11474
aI13227
aI15210
aI17241
aI20412
aI23033
aI24912
aI26301
aI28186
aI31273
aI33594
aI36482
aI41102
aI44391
aI47386
aI50261
aI52835
aI55095
aI57925
aI61328
aI63387
aI65626
aI68778
aI71900
aI74324
aI75937
aI76978
aI78581
aI81346
aI82442
aI84067
aI84579
aI86204
aI88473
aI90430
aI92612
aa(lp63
I0
aI0
aI0
aI0
aI0
aI0
aI0
aI0
aI0
aI0
aI0
aI1
aI7
aI52
aI215
aI222
aI171
aI60
aI36
aI77
aI200
aI166
aI124
aI127
aI139
aI151
aI145
aI177
aI176
aI164
aI194
aI199
aI228
aI206
aI241
aI321
aI314
aI338
aI392
aI407
aI383
aI430
aI453
aI479
aI658
aI536
aI578
aI521
aI481
aI486
aI536
aI538
aI503
aI588
aI876
aI808
aI610
aI518
aI526
aI508
aa(lp64
I0
aI0
aI0
aI0
aI0
aI0
aI0
aI0
aI0
aI0
aI0
aI0
aI2
aI12
aI49
aI253
aI726
aI1531
aI1975
aI1698
aI1515
aI1658
aI1845
aI2550
aI3262
aI3286
aI3627
aI4420
aI4422
aI4862
aI4298
aI4441
aI4468
aI4799
aI5419
aI6648
aI6947
aI7087
aI7365
aI7755
aI7713
aI7832
aI8162
aI8277
aI8735
aI9663
aI9982
aI10253
aI10346
aI10778
aI11039
aI11417
aI12000
aI12709
aI12855
aI13850
aI14042
aI13987
aI14685
aI15177
aa(lp65
I0
aI0
aI0
aI0
aI0
aI0
aI0
aI0
aI0
aI0
aI0
aI5
aI11
aI56
aI434
aI1439
aI2374
aI3577
aI5552
aI5600
aI5165
aI5622
aI6328
aI7494
aI8975
aI11503
aI13298
aI15429
aI17806
aI19326
aI20863
aI22362
aI24277
aI27485
aI31618
aI35949
aI39076
aI42639
aI45934
aI47549
aI50224
aI52448
aI54439
aI56106
aI58364
aI60602
aI63183
aI65340
aI67814
aI69085
aI71512
aI73966
aI75519
aI77416
aI78487
aI81240
aI84168
aI86583
aI88690
aI91073
aa(lp66
I0
aI0
aI0
aI0
aI0
aI0
aI0
aI0
aI0
aI0
aI0
aI2
aI10
aI22
aI87
aI396
aI971
aI1633
aI2079
aI1992
aI1986
aI2047
aI2156
aI2724
aI3263
aI3615
aI4080
aI4362
aI4500
aI4440
aI4495
aI4862
aI5259
aI5271
aI5432
aI6112
aI6415
aI6763
aI7149
aI7336
aI7842
aI8133
aI8538
aI8553
aI8998
aI8926
aI9301
aI9567
aI10099
aI10355
aI10483
aI10995
aI11335
aI11884
aI12400
aI12304
aI12489
aI13307
aI13494
aI14150
aa(lp67
I0
aI0
aI0
aI0
aI0
aI2
aI2
aI7
aI9
aI14
aI16
aI15
aI26
aI76
aI230
aI760
aI2186
aI4028
aI5723
aI6022
aI5222
aI4859
aI4864
aI5824
aI7196
aI8453
aI9015
aI9799
aI10396
aI10581
aI10693
aI11005
aI11227
aI12335
aI13144
aI14662
aI15611
aI16602
aI17786
aI18584
aI19180
aI20019
aI20528
aI20704
aI21273
aI22106
aI22910
aI24084
aI25002
aI26170
aI26980
aI27873
aI28500
aI29190
aI30070
aI31669
aI32511
aI33290
aI34737
aI35328
aa(lp68
I0
aI0
aI0
aI0
aI0
aI0
aI0
aI0
aI0
aI0
aI0
aI0
aI0
aI1
aI3
aI7
aI50
aI173
aI374
aI478
aI597
aI697
aI810
aI881
aI1006
aI1034
aI987
aI997
aI1007
aI1130
aI1113
aI1141
aI1149
aI1204
aI1278
aI1118
aI1049
aI1220
aI1225
aI1356
aI1396
aI1616
aI1519
aI1643
aI1703
aI1665
aI1739
aI1835
aI1824
aI1937
aI2019
aI2010
aI2033
aI2182
aI2186
aI2299
aI2177
aI2405
aI2715
aI2876
aa(lp69
I0
aI0
aI0
aI0
aI0
aI0
aI0
aI0
aI0
aI0
aI0
aI1
aI1
aI1
aI4
aI18
aI51
aI112
aI166
aI211
aI241
aI220
aI255
aI257
aI263
aI329
aI420
aI346
aI326
aI319
aI365
aI352
aI415
aI346
aI407
aI432
aI561
aI588
aI619
aI712
aI713
aI673
aI728
aI665
aI698
aI775
aI887
aI924
aI917
aI1048
aI1133
aI1200
aI1042
aI1090
aI1074
aI1148
aI1194
aI1255
aI1097
aI1081
aa(lp70
I0
aI0
aI0
aI0
aI0
aI0
aI0
aI0
aI0
aI0
aI0
aI0
aI1
aI3
aI2
aI20
aI123
aI319
aI515
aI520
aI582
aI585
aI638
aI812
aI992
aI1109
aI1329
aI1390
aI1669
aI1426
aI1441
aI1452
aI1678
aI1860
aI1881
aI1779
aI1911
aI2056
aI2187
aI2522
aI2671
aI2844
aI2836
aI2943
aI3164
aI3491
aI3495
aI3420
aI3784
aI3862
aI4161
aI4318
aI4478
aI4825
aI4863
aI4893
aI5147
aI5219
aI5291
aI5423
aa(lp71
I0
aI0
aI0
aI0
aI0
aI1
aI10
aI23
aI28
aI91
aI282
aI1169
aI5464
aI16296
aI28442
aI38072
aI44641
aI52370
aI61480
aI71685
aI83464
aI93188
aI102777
aI113254
aI123000
aI135352
aI150357
aI163683
aI176025
aI188396
aI199749
aI211074
aI225511
aI239532
aI253508
aI267422
aI285055
aI301321
aI320039
aI337016
aI354255
aI370162
aI385213
aI402899
aI422206
aI441168
aI460416
aI479040
aI499506
aI521090
aI542409
aI561073
aI580035
aI598850
aI619440
aI637547
aI657820
aI678632
aI696364
aI715382
aa(lp72
I0
aI0
aI0
aI0
aI0
aI0
aI4
aI1
aI2
aI0
aI0
aI1
aI7
aI4
aI19
aI40
aI182
aI683
aI1725
aI2641
aI3687
aI4271
aI4849
aI5732
aI6626
aI7561
aI7997
aI8529
aI8917
aI9706
aI10252
aI10392
aI10925
aI11080
aI11996
aI12746
aI13265
aI14051
aI14777
aI16004
aI16591
aI17496
aI18681
aI19242
aI20745
aI21867
aI23267
aI24131
aI25686
aI26468
aI27370
aI28368
aI29413
aI30975
aI31576
aI32341
aI33235
aI35014
aI36069
aI36956
aa(lp73
I0
aI0
aI0
aI0
aI0
aI0
aI0
aI0
aI0
aI0
aI0
aI2
aI0
aI6
aI13
aI29
aI144
aI450
aI932
aI1408
aI1853
aI2309
aI3020
aI3587
aI4049
aI4812
aI5772
aI6469
aI7199
aI7846
aI8647
aI9537
aI10384
aI11144
aI12309
aI13468
aI14904
aI16499
aI17690
aI18856
aI20580
aI21615
aI23695
aI24915
aI26518
aI27980
aI29375
aI30609
aI31732
aI33313
aI34446
aI35665
aI36363
aI37997
aI38867
aI39929
aI40882
aI41644
aI42251
aI42964
aa(lp74
I0
aI0
aI0
aI0
aI0
aI0
aI0
aI0
aI0
aI0
aI0
aI0
aI2
aI1
aI3
aI33
aI176
aI709
aI1323
aI1844
aI2236
aI2734
aI3286
aI3627
aI4208
aI4581
aI4776
aI4995
aI5316
aI5618
aI5909
aI6114
aI6097
aI6037
aI6093
aI6334
aI6254
aI6582
aI6618
aI6902
aI7134
aI7366
aI7466
aI7589
aI7868
aI8110
aI8221
aI8709
aI8904
aI9182
aI9385
aI9856
aI10048
aI10611
aI10698
aI11044
aI11442
aI11953
aI12164
aI12318
aa(lp75
I0
aI0
aI0
aI0
aI0
aI0
aI0
aI0
aI0
aI0
aI0
aI0
aI0
aI1
aI1
aI8
aI72
aI197
aI336
aI517
aI590
aI600
aI668
aI796
aI867
aI945
aI990
aI896
aI1048
aI1184
aI1347
aI1241
aI1431
aI1331
aI1466
aI1318
aI1345
aI1452
aI1448
aI1426
aI1579
aI1562
aI1682
aI1750
aI1851
aI1809
aI2019
aI1965
aI1999
aI2078
aI1992
aI2124
aI2254
aI2312
aI2345
aI2239
aI2294
aI2523
aI2530
aI2496
aa(lp76
I0
aI0
aI0
aI0
aI0
aI0
aI0
aI0
aI0
aI0
aI0
aI0
aI0
aI0
aI0
aI2
aI6
aI28
aI57
aI78
aI89
aI145
aI157
aI178
aI206
aI185
aI204
aI206
aI243
aI280
aI359
aI324
aI291
aI320
aI337
aI364
aI414
aI430
aI404
aI479
aI490
aI573
aI601
aI625
aI668
aI689
aI665
aI778
aI827
aI813
aI870
aI842
aI857
aI886
aI1002
aI1044
aI1095
aI1185
aI1144
aI1221
aa(lp77
I0
aI0
aI0
aI0
aI0
aI0
aI0
aI0
aI0
aI0
aI0
aI0
aI0
aI1
aI7
aI8
aI44
aI99
aI176
aI204
aI196
aI253
aI325
aI373
aI451
aI460
aI461
aI510
aI489
aI538
aI650
aI797
aI745
aI789
aI752
aI745
aI758
aI820
aI880
aI913
aI921
aI958
aI978
aI1033
aI1067
aI1053
aI1041
aI1141
aI1258
aI1197
aI1215
aI1348
aI1360
aI1314
aI1384
aI1429
aI1498
aI1691
aI1816
aI2032
aa(lp78
I0
aI0
aI0
aI0
aI0
aI0
aI0
aI0
aI0
aI0
aI0
aI27
aI22
aI8
aI8
aI30
aI81
aI143
aI228
aI254
aI276
aI298
aI266
aI381
aI503
aI521
aI577
aI562
aI642
aI711
aI754
aI774
aI736
aI745
aI769
aI812
aI884
aI940
aI943
aI1079
aI1043
aI1159
aI1037
aI1091
aI998
aI1245
aI1104
aI1268
aI1123
aI1247
aI1212
aI1376
aI1391
aI1418
aI1396
aI1449
aI1591
aI1668
aI1729
aI1768
aa(lp79
I0
aI0
aI0
aI0
aI0
aI0
aI0
aI0
aI0
aI0
aI0
aI1
aI3
aI2
aI14
aI64
aI137
aI245
aI445
aI569
aI727
aI908
aI1132
aI1475
aI1778
aI1918
aI2264
aI2473
aI2874
aI3365
aI3664
aI4376
aI5082
aI5694
aI6426
aI7082
aI7413
aI7893
aI8784
aI9202
aI9780
aI10303
aI10921
aI11599
aI12150
aI13181
aI13703
aI14409
aI14903
aI15508
aI16145
aI16904
aI17391
aI17602
aI17974
aI18300
aI18978
aI18945
aI19611
aI20012
aa(lp80
I0
aI0
aI0
aI0
aI0
aI0
aI0
aI1
aI0
aI0
aI0
aI0
aI1
aI3
aI2
aI2
aI13
aI16
aI10
aI14
aI24
aI53
aI42
aI45
aI59
aI59
aI67
aI101
aI69
aI54
aI104
aI88
aI65
aI58
aI66
aI78
aI98
aI79
aI70
aI104
aI112
aI128
aI119
aI106
aI135
aI125
aI125
aI122
aI141
aI106
aI90
aI87
aI88
aI109
aI93
aI115
aI105
aI83
aI123
aI106
aa(lp81
I0
aI0
aI0
aI0
aI0
aI0
aI0
aI0
aI0
aI0
aI0
aI1
aI1
aI5
aI14
aI39
aI77
aI116
aI147
aI189
aI216
aI231
aI256
aI365
aI423
aI382
aI488
aI560
aI516
aI602
aI560
aI496
aI545
aI582
aI709
aI738
aI878
aI880
aI896
aI890
aI1058
aI1055
aI1100
aI1270
aI1291
aI1283
aI1357
aI1438
aI1530
aI1535
aI1595
aI1636
aI1772
aI1916
aI1854
aI1869
aI2001
aI2064
aI2149
aI2314
aa(lp82
I0
aI0
aI0
aI0
aI0
aI0
aI0
aI0
aI0
aI0
aI0
aI0
aI3
aI8
aI27
aI105
aI210
aI362
aI537
aI695
aI901
aI1064
aI1323
aI1526
aI1831
aI1994
aI2078
aI2436
aI2619
aI3062
aI3268
aI3773
aI4131
aI4608
aI5426
aI6148
aI6867
aI7346
aI8246
aI8789
aI9758
aI10408
aI11071
aI11352
aI12108
aI12547
aI13107
aI13855
aI14327
aI14615
aI15034
aI15363
aI16179
aI16538
aI17286
aI17680
aI18172
aI19058
aI19949
aI20446
aa(lp83
I0
aI0
aI0
aI0
aI0
aI0
aI0
aI0
aI0
aI0
aI0
aI6
aI7
aI9
aI42
aI101
aI191
aI231
aI302
aI428
aI486
aI605
aI636
aI717
aI782
aI711
aI768
aI854
aI871
aI894
aI927
aI960
aI957
aI1078
aI1190
aI1218
aI1189
aI1247
aI1284
aI1345
aI1447
aI1388
aI1555
aI1665
aI1657
aI1722
aI1966
aI2067
aI2172
aI2325
aI2228
aI2221
aI2328
aI2526
aI2610
aI2538
aI2516
aI2683
aI2775
aI2909
aa(lp84
I0
aI0
aI0
aI0
aI0
aI0
aI2
aI2
aI1
aI3
aI5
aI5
aI7
aI15
aI38
aI121
aI246
aI438
aI520
aI581
aI647
aI723
aI788
aI981
aI1075
aI1125
aI1008
aI1022
aI1144
aI1261
aI1325
aI1445
aI1504
aI1598
aI1737
aI1980
aI2069
aI2123
aI2282
aI2343
aI2549
aI2673
aI2825
aI2889
aI3119
aI3301
aI3655
aI3717
aI3689
aI3948
aI3939
aI4243
aI4511
aI4665
aI4864
aI4973
aI5228
aI5632
aI5780
aI5984
aa(lp85
I0
aI0
aI0
aI0
aI0
aI0
aI0
aI0
aI0
aI0
aI0
aI0
aI0
aI0
aI1
aI3
aI12
aI20
aI66
aI100
aI117
aI139
aI205
aI221
aI271
aI282
aI302
aI321
aI293
aI229
aI281
aI268
aI234
aI298
aI305
aI265
aI268
aI269
aI301
aI374
aI379
aI359
aI394
aI360
aI374
aI406
aI397
aI363
aI386
aI418
aI497
aI461
aI462
aI516
aI540
aI533
aI526
aI585
aI528
aI576
aa(lp86
I0
aI0
aI0
aI0
aI0
aI0
aI0
aI0
aI0
aI0
aI0
aI0
aI0
aI6
aI6
aI15
aI14
aI31
aI51
aI72
aI60
aI43
aI68
aI77
aI89
aI103
aI87
aI66
aI61
aI111
aI136
aI137
aI135
aI102
aI98
aI128
aI99
aI107
aI113
aI113
aI116
aI129
aI115
aI147
aI150
aI157
aI169
aI218
aI193
aI162
aI192
aI207
aI235
aI288
aI234
aI220
aI207
aI194
aI190
aI217
aa(lp87
I0
aI0
aI0
aI0
aI0
aI0
aI0
aI0
aI0
aI0
aI0
aI0
aI1
aI0
aI1
aI0
aI13
aI38
aI74
aI88
aI99
aI120
aI151
aI196
aI198
aI225
aI224
aI247
aI285
aI306
aI354
aI378
aI379
aI372
aI410
aI437
aI450
aI413
aI482
aI527
aI502
aI625
aI635
aI612
aI675
aI751
aI814
aI912
aI938
aI835
aI918
aI936
aI952
aI1101
aI1056
aI1070
aI1190
aI1213
aI1123
aI1202
aa(lp88
I0
aI0
aI0
aI0
aI0
aI6
aI0
aI6
aI9
aI38
aI89
aI213
aI571
aI1591
aI3351
aI5270
aI7330
aI9075
aI11103
aI13432
aI15811
aI18223
aI20592
aI23409
aI25240
aI27602
aI29758
aI32636
aI35378
aI37983
aI40585
aI43768
aI47482
aI50538
aI53861
aI57127
aI60733
aI63842
aI66991
aI70604
aI74004
aI78674
aI82459
aI86887
aI91071
aI95453
aI99280
aI104503
aI108990
aI113282
aI117835
aI122318
aI127220
aI132169
aI136070
aI141464
aI145506
aI150603
aI154871
aI159733
aa(lp89
I0
aI0
aI0
aI0
aI0
aI0
aI0
aI0
aI0
aI0
aI0
aI1
aI11
aI2
aI12
aI53
aI364
aI1182
aI2405
aI3748
aI4802
aI5867
aI7420
aI8507
aI9028
aI9703
aI10405
aI11267
aI12282
aI13602
aI14628
aI15179
aI15759
aI17091
aI18711
aI19892
aI20942
aI22790
aI23517
aI24373
aI26361
aI27793
aI29664
aI30587
aI31932
aI33775
aI35487
aI36751
aI37640
aI38981
aI41348
aI43559
aI45138
aI47325
aI48674
aI50938
aI52416
aI54263
aI56786
aI58029
aa(lp90
I0
aI0
aI0
aI0
aI0
aI0
aI0
aI1
aI1
aI5
aI1
aI6
aI12
aI22
aI19
aI79
aI211
aI600
aI1199
aI2214
aI3902
aI6128
aI8255
aI10575
aI11582
aI11008
aI11185
aI12191
aI13291
aI14511
aI15299
aI16759
aI18526
aI20173
aI21558
aI24236
aI25577
aI27842
aI30337
aI33184
aI35775
aI38726
aI41537
aI44542
aI47449
aI50984
aI54625
aI56946
aI59360
aI61573
aI64196
aI66237
aI69440
aI71936
aI74196
aI76384
aI78248
aI79460
aI82060
aI83057
aa(lp91
I0
aI0
aI0
aI0
aI0
aI0
aI0
aI0
aI0
aI0
aI0
aI2
aI6
aI1
aI9
aI56
aI295
aI1109
aI1923
aI2533
aI3241
aI3597
aI4074
aI4517
aI5024
aI5471
aI6012
aI6403
aI6910
aI7234
aI7433
aI8034
aI8580
aI9196
aI9261
aI9525
aI9694
aI10026
aI10330
aI10345
aI10801
aI11104
aI11610
aI11775
aI12121
aI12515
aI13227
aI13839
aI14181
aI14843
aI15510
aI15673
aI15714
aI16437
aI16577
aI16589
aI16947
aI17522
aI17625
aI18261
aa(lp92
I0
aI0
aI0
aI0
aI0
aI0
aI0
aI0
aI0
aI0
aI0
aI0
aI1
aI1
aI5
aI13
aI104
aI320
aI593
aI862
aI968
aI1270
aI1544
aI1588
aI1552
aI1695
aI1796
aI1842
aI1823
aI1882
aI2003
aI2099
aI2213
aI2367
aI2594
aI2584
aI2374
aI2514
aI2613
aI2670
aI2694
aI2903
aI2929
aI3076
aI3224
aI3323
aI3340
aI3347
aI3435
aI3568
aI3625
aI3730
aI3883
aI3975
aI4013
aI4139
aI4070
aI4378
aI4139
aI4267
aa(lp93
I0
aI0
aI0
aI0
aI0
aI0
aI0
aI0
aI0
aI0
aI0
aI0
aI0
aI1
aI2
aI2
aI12
aI57
aI125
aI252
aI397
aI477
aI753
aI837
aI650
aI610
aI706
aI723
aI837
aI859
aI1066
aI1129
aI994
aI1023
aI1165
aI1202
aI1421
aI1435
aI1444
aI1456
aI1778
aI1744
aI1730
aI1805
aI1901
aI1881
aI1801
aI1876
aI1989
aI1866
aI2024
aI2178
aI2306
aI2297
aI2398
aI2426
aI2403
aI2530
aI2650
aI2665
aa(lp94
I0
aI0
aI0
aI0
aI0
aI0
aI0
aI0
aI0
aI0
aI0
aI0
aI2
aI5
aI12
aI41
aI329
aI865
aI703
aI463
aI539
aI735
aI890
aI978
aI1118
aI970
aI976
aI998
aI981
aI1019
aI1001
aI1165
aI1254
aI1249
aI1339
aI1406
aI1408
aI1602
aI1629
aI1577
aI1555
aI1728
aI1853
aI1902
aI1975
aI2150
aI2212
aI2343
aI2180
aI2298
aI2256
aI2568
aI2675
aI2688
aI2555
aI2756
aI2756
aI3057
aI3254
aI3480
aa(lp95
I0
aI0
aI0
aI0
aI0
aI0
aI0
aI0
aI0
aI1
aI3
aI17
aI116
aI442
aI250
aI187
aI354
aI417
aI664
aI907
aI880
aI832
aI771
aI896
aI915
aI1063
aI1045
aI1226
aI1267
aI1337
aI1406
aI1463
aI1581
aI1617
aI1767
aI1825
aI1966
aI1899
aI2032
aI2128
aI2170
aI2207
aI2288
aI2350
aI2482
aI2614
aI2585
aI2605
aI2761
aI3028
aI3038
aI3196
aI3040
aI3075
aI3161
aI3145
aI3287
aI3504
aI3618
aI3622
aa(lp96
I0
aI0
aI0
aI0
aI0
aI0
aI1
aI0
aI0
aI1
aI1
aI2
aI1
aI7
aI44
aI123
aI354
aI963
aI1911
aI2770
aI2921
aI2285
aI2144
aI2646
aI3566
aI4809
aI6249
aI6927
aI7417
aI7495
aI7884
aI8444
aI8696
aI9415
aI10334
aI11320
aI12028
aI13345
aI14546
aI15791
aI16893
aI18490
aI20299
aI21580
aI23138
aI24161
aI25070
aI27179
aI29187
aI29771
aI31374
aI32284
aI33311
aI33672
aI35614
aI35846
aI36771
aI37822
aI38194
aI38649
aa(lp97
I0
aI0
aI0
aI0
aI0
aI0
aI0
aI2
aI63
aI123
aI19
aI13
aI41
aI127
aI239
aI167
aI75
aI56
aI39
aI41
aI62
aI78
aI72
aI98
aI94
aI102
aI132
aI115
aI124
aI110
aI111
aI99
aI80
aI70
aI65
aI76
aI96
aI99
aI86
aI104
aI115
aI104
aI115
aI88
aI105
aI86
aI108
aI100
aI95
aI99
aI116
aI142
aI140
aI112
aI115
aI129
aI129
aI195
aI168
aI129
aa(lp98
I0
aI0
aI0
aI0
aI0
aI0
aI0
aI0
aI0
aI0
aI0
aI0
aI4
aI11
aI43
aI128
aI309
aI548
aI878
aI803
aI771
aI839
aI961
aI1192
aI1441
aI1411
aI1521
aI1631
aI1686
aI1655
aI1836
aI1880
aI1990
aI2014
aI2288
aI2480
aI2761
aI3013
aI3096
aI2888
aI3131
aI3203
aI3511
aI3619
aI3458
aI3468
aI3450
aI3620
aI3842
aI3880
aI3914
aI4124
aI4385
aI4669
aI4730
aI4581
aI4691
aI4785
aI4883
aI5055
aa(lp99
I0
aI0
aI0
aI0
aI0
aI0
aI0
aI0
aI1
aI0
aI0
aI0
aI5
aI22
aI147
aI328
aI682
aI1626
aI2670
aI2624
aI2661
aI2360
aI2431
aI2703
aI3015
aI3272
aI3427
aI4108
aI5108
aI6189
aI6580
aI6572
aI7462
aI8267
aI9316
aI10983
aI12217
aI13624
aI14202
aI15682
aI17100
aI18337
aI19007
aI20265
aI20646
aI21827
aI23521
aI24671
aI25618
aI26348
aI27433
aI29349
aI31342
aI32960
aI33739
aI34969
aI35656
aI37191
aI37853
aI38205
aa(lp100
I0
aI0
aI0
aI0
aI0
aI0
aI4
aI3
aI2
aI9
aI5
aI8
aI17
aI30
aI111
aI237
aI528
aI889
aI1094
aI985
aI923
aI919
aI1028
aI1092
aI1157
aI1284
aI1429
aI1468
aI1609
aI1640
aI1875
aI2037
aI2064
aI2201
aI2370
aI2497
aI2794
aI2728
aI2866
aI3074
aI3182
aI3432
aI3512
aI3575
aI3744
aI3741
aI3964
aI4100
aI4229
aI4649
aI4827
aI4990
aI5097
aI5248
aI5474
aI5553
aI5583
aI5811
aI5735
aI5859
aa(lp101
I0
aI0
aI0
aI0
aI0
aI2
aI4
aI3
aI1
aI6
aI4
aI12
aI25
aI54
aI107
aI357
aI794
aI1726
aI2743
aI2823
aI2212
aI1963
aI1981
aI2159
aI2342
aI2632
aI2955
aI3250
aI3360
aI3600
aI3695
aI3785
aI4068
aI4310
aI4665
aI5179
aI5472
aI6012
aI6312
aI6570
aI6847
aI7004
aI7234
aI7441
aI7634
aI8225
aI8333
aI8756
aI8761
aI9196
aI9543
aI9809
aI9884
aI10494
aI10934
aI11543
aI11687
aI12148
aI12107
aI12384
aa(lp102
I0
aI0
aI0
aI0
aI0
aI0
aI0
aI0
aI0
aI0
aI0
aI0
aI0
aI2
aI2
aI9
aI27
aI48
aI82
aI116
aI167
aI157
aI194
aI245
aI303
aI349
aI303
aI349
aI386
aI387
aI329
aI336
aI308
aI388
aI401
aI466
aI525
aI634
aI638
aI697
aI725
aI724
aI744
aI757
aI732
aI730
aI654
aI649
aI682
aI705
aI783
aI816
aI930
aI1051
aI1052
aI1098
aI971
aI1015
aI1003
aI1130
aa(lp103
I0
aI0
aI0
aI0
aI0
aI0
aI0
aI0
aI0
aI0
aI2
aI8
aI16
aI15
aI17
aI28
aI14
aI45
aI60
aI72
aI93
aI84
aI73
aI86
aI82
aI136
aI119
aI123
aI121
aI110
aI119
aI115
aI135
aI138
aI152
aI195
aI175
aI173
aI187
aI189
aI205
aI227
aI241
aI194
aI209
aI249
aI290
aI283
aI335
aI327
aI351
aI357
aI364
aI319
aI331
aI334
aI329
aI407
aI376
aI419
aa(lp104
I0
aI0
aI0
aI0
aI0
aI0
aI0
aI0
aI0
aI0
aI0
aI0
aI0
aI7
aI12
aI42
aI75
aI171
aI278
aI453
aI470
aI344
aI301
aI336
aI371
aI428
aI541
aI618
aI722
aI597
aI655
aI695
aI692
aI717
aI738
aI850
aI848
aI819
aI908
aI993
aI1153
aI1057
aI1084
aI1199
aI1158
aI1232
aI1358
aI1488
aI1487
aI1588
aI1676
aI1769
aI1700
aI1816
aI1834
aI1875
aI1893
aI2067
aI2230
aI2434
aa(lp105
I0
aI0
aI0
aI0
aI0
aI2
aI10
aI13
aI30
aI108
aI217
aI675
aI2330
aI5319
aI8600
aI11254
aI13764
aI16788
aI19547
aI22712
aI26408
aI29845
aI33287
aI36736
aI40434
aI43730
aI48982
aI53416
aI59485
aI66041
aI71032
aI77345
aI83946
aI89878
aI96070
aI101247
aI106846
aI112196
aI119567
aI125709
aI132879
aI139862
aI146971
aI155101
aI161703
aI169979
aI176598
aI184938
aI191155
aI198303
aI208067
aI215891
aI223496
aI231742
aI239692
aI247282
aI256704
aI266354
aI273424
aI281331
aa(lp106
I0
aI0
aI0
aI0
aI0
aI0
aI0
aI0
aI0
aI1
aI0
aI3
aI3
aI4
aI21
aI60
aI176
aI744
aI1629
aI2427
aI3145
aI3963
aI4547
aI5233
aI5512
aI5922
aI6274
aI6587
aI7065
aI7396
aI7593
aI8033
aI8321
aI9266
aI9990
aI10761
aI11270
aI12333
aI13146
aI14257
aI15248
aI16568
aI16776
aI17495
aI18024
aI18980
aI19675
aI20478
aI21495
aI22398
aI23231
aI23942
aI25758
aI26272
aI27355
aI28397
aI29541
aI30322
aI31444
aI32991
aa(lp107
I0
aI0
aI0
aI0
aI0
aI0
aI0
aI1
aI0
aI0
aI0
aI0
aI0
aI10
aI26
aI71
aI188
aI638
aI1372
aI2719
aI4414
aI6288
aI7493
aI7485
aI7425
aI6809
aI6856
aI7449
aI8365
aI8764
aI10010
aI10801
aI11617
aI12875
aI14294
aI15552
aI16207
aI17584
aI19179
aI20480
aI22098
aI23794
aI25455
aI26994
aI29064
aI30958
aI31955
aI32242
aI33050
aI34607
aI35759
aI37448
aI38036
aI38849
aI40406
aI41923
aI44290
aI45181
aI45439
aI46053
aa(lp108
I0
aI0
aI0
aI0
aI0
aI0
aI0
aI0
aI0
aI0
aI0
aI0
aI0
aI0
aI2
aI18
aI150
aI461
aI778
aI1159
aI1471
aI1848
aI2218
aI2303
aI2586
aI2869
aI3099
aI3216
aI3718
aI4009
aI4008
aI4077
aI4297
aI4537
aI4482
aI4349
aI4396
aI4367
aI4563
aI4847
aI5012
aI5130
aI5284
aI5414
aI5814
aI5960
aI6105
aI6342
aI6884
aI7167
aI7233
aI7568
aI7658
aI8234
aI8701
aI8806
aI9366
aI9799
aI9828
aI9959
aa(lp109
I0
aI0
aI0
aI0
aI0
aI0
aI0
aI0
aI0
aI0
aI0
aI0
aI0
aI1
aI0
aI13
aI75
aI205
aI323
aI528
aI732
aI1187
aI1378
aI1273
aI1166
aI1087
aI1027
aI1227
aI1150
aI1165
aI1134
aI1086
aI1137
aI1142
aI1091
aI1156
aI1193
aI1257
aI1251
aI1312
aI1334
aI1369
aI1350
aI1498
aI1636
aI1732
aI1699
aI1696
aI1880
aI1804
aI1950
aI1924
aI1982
aI2071
aI2160
aI2178
aI2182
aI2367
aI2278
aI2349
aa(lp110
I0
aI0
aI0
aI0
aI0
aI0
aI0
aI0
aI0
aI0
aI0
aI0
aI5
aI11
aI3
aI2
aI19
aI66
aI121
aI250
aI297
aI347
aI420
aI406
aI448
aI467
aI497
aI526
aI531
aI675
aI677
aI689
aI613
aI698
aI693
aI785
aI719
aI794
aI813
aI845
aI860
aI945
aI1085
aI1053
aI1102
aI1137
aI1156
aI1092
aI1200
aI1301
aI1385
aI1383
aI1458
aI1388
aI1490
aI1494
aI1511
aI1411
aI1469
aI1490
aa(lp111
I0
aI0
aI0
aI0
aI0
aI0
aI0
aI0
aI0
aI0
aI0
aI0
aI0
aI0
aI4
aI7
aI42
aI145
aI362
aI1066
aI1794
aI1466
aI1636
aI1457
aI1185
aI972
aI861
aI897
aI865
aI880
aI857
aI893
aI941
aI1012
aI1039
aI1020
aI984
aI1034
aI1035
aI1076
aI1013
aI1118
aI1136
aI1128
aI1176
aI1172
aI1199
aI1257
aI1279
aI1266
aI1381
aI1273
aI1340
aI1490
aI1473
aI1489
aI1682
aI1929
aI2135
aI2533
aa(lp112
I0
aI0
aI0
aI0
aI0
aI0
aI0
aI0
aI0
aI0
aI1
aI2
aI2
aI18
aI55
aI191
aI792
aI2194
aI2450
aI1782
aI1297
aI953
aI888
aI860
aI886
aI1012
aI1447
aI1493
aI1342
aI1290
aI1279
aI1196
aI1169
aI1138
aI1219
aI1220
aI1371
aI1379
aI1468
aI1397
aI1367
aI1423
aI1463
aI1546
aI1366
aI1419
aI1439
aI1590
aI1639
aI1575
aI1742
aI1716
aI1792
aI1871
aI1779
aI1940
aI1928
aI1901
aI1908
aI2073
aa(lp113
I0
aI0
aI0
aI0
aI0
aI0
aI0
aI0
aI0
aI0
aI0
aI1
aI0
aI4
aI41
aI212
aI854
aI2181
aI2778
aI2794
aI2057
aI1658
aI1568
aI1936
aI2477
aI2922
aI4170
aI4516
aI4951
aI5058
aI5295
aI5312
aI5677
aI5820
aI6305
aI7110
aI7584
aI8250
aI9244
aI9988
aI10951
aI11971
aI12495
aI12498
aI12902
aI13558
aI14242
aI15386
aI16176
aI16714
aI17559
aI18059
aI18584
aI18948
aI19046
aI19542
aI20331
aI21465
aI21824
aI21867
aa(lp114
I0
aI0
aI0
aI0
aI0
aI0
aI0
aI0
aI0
aI0
aI5
aI18
aI92
aI195
aI224
aI174
aI122
aI56
aI36
aI40
aI28
aI38
aI88
aI74
aI67
aI64
aI58
aI48
aI64
aI62
aI72
aI97
aI141
aI122
aI91
aI65
aI60
aI74
aI80
aI83
aI47
aI53
aI69
aI69
aI60
aI98
aI116
aI80
aI59
aI51
aI64
aI74
aI39
aI48
aI53
aI53
aI74
aI101
aI93
aI52
aa(lp115
I0
aI0
aI0
aI0
aI0
aI0
aI0
aI0
aI0
aI1
aI2
aI13
aI30
aI17
aI35
aI113
aI309
aI339
aI378
aI438
aI588
aI639
aI619
aI709
aI894
aI946
aI1049
aI1090
aI1142
aI1193
aI1143
aI1163
aI1329
aI1465
aI1360
aI1464
aI1542
aI1662
aI1629
aI1743
aI1791
aI1819
aI1880
aI1947
aI1968
aI2164
aI2301
aI2496
aI2463
aI2327
aI2569
aI2596
aI2595
aI2736
aI2780
aI2708
aI2816
aI2883
aI2915
aI2978
aa(lp116
I0
aI0
aI0
aI0
aI0
aI1
aI0
aI0
aI0
aI0
aI1
aI0
aI4
aI11
aI69
aI193
aI454
aI569
aI795
aI996
aI1334
aI1667
aI1603
aI1884
aI2024
aI2653
aI3360
aI3921
aI4607
aI4564
aI4558
aI4412
aI4792
aI5531
aI5962
aI6768
aI7455
aI8028
aI8840
aI9632
aI9809
aI10076
aI10864
aI11714
aI12490
aI13221
aI13556
aI14163
aI14941
aI15255
aI15906
aI17058
aI17728
aI17985
aI18361
aI19193
aI20165
aI20439
aI21180
aI21547
aa(lp117
I0
aI0
aI0
aI0
aI0
aI0
aI0
aI0
aI0
aI0
aI3
aI26
aI46
aI44
aI139
aI401
aI1194
aI1627
aI1377
aI887
aI730
aI648
aI712
aI746
aI819
aI914
aI996
aI1091
aI1155
aI1169
aI1162
aI1174
aI1226
aI1216
aI1340
aI1611
aI1712
aI1739
aI1725
aI2024
aI2067
aI2070
aI2151
aI2124
aI2090
aI2171
aI2316
aI2405
aI2560
aI2816
aI2555
aI2559
aI2787
aI2956
aI2827
aI3016
aI3115
aI3150
aI3000
aI3334
aa(lp118
I0
aI0
aI0
aI0
aI0
aI2
aI1
aI1
aI5
aI6
aI2
aI15
aI24
aI62
aI191
aI541
aI1459
aI2954
aI3306
aI2749
aI1928
aI1705
aI1763
aI2015
aI2282
aI2431
aI2670
aI2821
aI3028
aI3125
aI3140
aI3039
aI3262
aI3276
aI3630
aI4022
aI4419
aI4893
aI5012
aI5319
aI5506
aI5728
aI5647
aI5707
aI5959
aI5985
aI6356
aI6301
aI6620
aI6764
aI7254
aI7252
aI7308
aI7479
aI7857
aI8260
aI8390
aI8341
aI8688
aI8947
aa(lp119
I0
aI0
aI0
aI0
aI0
aI0
aI0
aI0
aI0
aI0
aI0
aI0
aI0
aI0
aI0
aI0
aI2
aI9
aI26
aI40
aI68
aI67
aI93
aI97
aI128
aI162
aI141
aI129
aI171
aI131
aI191
aI178
aI172
aI171
aI205
aI211
aI182
aI231
aI307
aI320
aI363
aI343
aI380
aI389
aI369
aI398
aI467
aI448
aI403
aI382
aI420
aI505
aI480
aI505
aI523
aI554
aI490
aI499
aI547
aI542
aa(lp120
I0
aI0
aI0
aI0
aI0
aI0
aI0
aI0
aI0
aI0
aI0
aI0
aI1
aI2
aI6
aI7
aI25
aI26
aI46
aI52
aI60
aI38
aI51
aI55
aI67
aI74
aI50
aI58
aI56
aI68
aI52
aI52
aI64
aI85
aI74
aI95
aI105
aI108
aI145
aI129
aI130
aI158
aI198
aI213
aI163
aI138
aI123
aI140
aI150
aI177
aI165
aI194
aI212
aI208
aI252
aI294
aI257
aI275
aI260
aI227
aa(lp121
I0
aI0
aI0
aI0
aI0
aI0
aI0
aI0
aI0
aI0
aI0
aI0
aI0
aI1
aI1
aI15
aI42
aI118
aI196
aI269
aI274
aI288
aI258
aI308
aI310
aI349
aI425
aI559
aI522
aI514
aI514
aI498
aI434
aI450
aI519
aI611
aI639
aI629
aI712
aI648
aI701
aI728
aI697
aI790
aI759
aI897
aI991
aI932
aI912
aI942
aI986
aI1090
aI987
aI1159
aI1133
aI1129
aI1135
aI1241
aI1269
aI1352
aa(lp122
I0
aI0
aI0
aI0
aI0
aI0
aI4
aI8
aI51
aI175
aI567
aI2236
aI7085
aI10750
aI10970
aI10232
aI11058
aI12734
aI15064
aI17929
aI20578
aI23257
aI24233
aI25492
aI27895
aI29655
aI32015
aI35166
aI37678
aI42548
aI45481
aI48663
aI50567
aI52784
aI56522
aI60502
aI64752
aI68014
aI72648
aI76777
aI79565
aI83713
aI87287
aI90461
aI93833
aI97659
aI102523
aI106286
aI111265
aI116393
aI120637
aI125022
aI129721
aI133318
aI137639
aI142839
aI148103
aI153029
aI158509
aI162190
aa(lp123
I0
aI0
aI0
aI0
aI0
aI0
aI0
aI3
aI1
aI0
aI1
aI21
aI49
aI13
aI23
aI70
aI369
aI1061
aI2244
aI3414
aI4449
aI5554
aI6711
aI7690
aI8587
aI9831
aI10709
aI12137
aI13055
aI13929
aI14195
aI15012
aI15729
aI16822
aI17452
aI19141
aI20416
aI21082
aI22667
aI23787
aI25133
aI27206
aI28672
aI30211
aI31920
aI34130
aI35823
aI37042
aI39132
aI40571
aI41954
aI43346
aI45536
aI47096
aI48881
aI51719
aI53821
aI55666
aI57228
aI59977
aa(lp124
I0
aI0
aI0
aI0
aI0
aI0
aI3
aI15
aI3
aI0
aI4
aI65
aI540
aI38
aI113
aI94
aI207
aI728
aI1920
aI3315
aI4127
aI5953
aI7612
aI9257
aI10117
aI11279
aI12970
aI14276
aI15186
aI16415
aI17904
aI19856
aI21762
aI23479
aI25077
aI27129
aI28775
aI31705
aI33468
aI35600
aI37952
aI41305
aI44309
aI47603
aI49617
aI51590
aI54893
aI57832
aI60849
aI63745
aI66364
aI67949
aI69269
aI71106
aI72860
aI75121
aI76863
aI79261
aI81432
aI82778
aa(lp125
I0
aI0
aI0
aI0
aI0
aI0
aI0
aI2
aI0
aI0
aI2
aI7
aI7
aI3
aI26
aI79
aI523
aI1799
aI3360
aI4225
aI4765
aI4909
aI5448
aI5952
aI6639
aI6540
aI7013
aI7293
aI7378
aI8006
aI8031
aI8305
aI8482
aI8707
aI8751
aI9037
aI9474
aI9913
aI10215
aI10289
aI10756
aI11123
aI11033
aI11419
aI11882
aI12306
aI12897
aI13774
aI13960
aI14266
aI14690
aI15255
aI15870
aI16346
aI16581
aI17464
aI18009
aI18989
aI19315
aI19710
aa(lp126
I0
aI0
aI0
aI0
aI0
aI0
aI0
aI0
aI2
aI2
aI0
aI0
aI0
aI3
aI3
aI27
aI132
aI445
aI813
aI1231
aI1221
aI1524
aI1713
aI1835
aI1823
aI1851
aI2033
aI2050
aI2100
aI2332
aI2372
aI2327
aI2257
aI2258
aI2375
aI2675
aI2741
aI2717
aI2778
aI2900
aI3092
aI3205
aI3471
aI3569
aI3591
aI3649
aI3497
aI3548
aI3617
aI3650
aI3814
aI3850
aI3854
aI4130
aI4434
aI4284
aI4225
aI4413
aI4493
aI4466
aa(lp127
I0
aI0
aI0
aI0
aI0
aI0
aI0
aI0
aI0
aI0
aI0
aI0
aI0
aI2
aI1
aI10
aI49
aI193
aI524
aI1248
aI1645
aI1576
aI1554
aI1284
aI956
aI803
aI850
aI973
aI886
aI1018
aI1159
aI1191
aI1276
aI1266
aI1228
aI1357
aI1367
aI1588
aI1848
aI1941
aI1956
aI2042
aI2103
aI2035
aI1958
aI2075
aI2240
aI2236
aI2215
aI2274
aI2367
aI2392
aI2571
aI2657
aI2631
aI2702
aI2808
aI2734
aI2951
aI3091
aa(lp128
I0
aI0
aI0
aI0
aI0
aI0
aI0
aI0
aI0
aI0
aI0
aI7
aI12
aI5
aI105
aI42
aI111
aI270
aI533
aI764
aI573
aI643
aI796
aI1011
aI1125
aI991
aI1130
aI1382
aI1380
aI1248
aI1357
aI1344
aI1366
aI1489
aI1533
aI1786
aI1813
aI1723
aI1941
aI1940
aI1977
aI2139
aI2375
aI2278
aI2340
aI2217
aI2351
aI2317
aI2322
aI2375
aI2643
aI2690
aI2825
aI2828
aI2944
aI3012
aI3003
aI3312
aI3626
aI3732
aa(lp129
I0
aI0
aI0
aI0
aI0
aI0
aI2
aI1
aI1
aI2
aI1
aI34
aI324
aI42
aI106
aI143
aI231
aI313
aI562
aI667
aI695
aI861
aI904
aI1064
aI1247
aI1420
aI1400
aI1364
aI1398
aI1481
aI1579
aI1560
aI1754
aI1815
aI1979
aI2068
aI2197
aI2188
aI2337
aI2170
aI2366
aI2457
aI2423
aI2560
aI2567
aI2755
aI2652
aI2856
aI2969
aI3004
aI2998
aI3123
aI3146
aI3190
aI3392
aI3460
aI3538
aI3828
aI3982
aI4083
aa(lp130
I0
aI0
aI0
aI0
aI0
aI0
aI0
aI0
aI0
aI1
aI2
aI2
aI7
aI12
aI37
aI92
aI240
aI626
aI1060
aI1699
aI2141
aI2692
aI3302
aI3931
aI4638
aI5643
aI6390
aI7153
aI7933
aI8491
aI8964
aI9540
aI10040
aI10986
aI12029
aI12806
aI13873
aI15145
aI16236
aI17441
aI18629
aI20099
aI21198
aI22373
aI24196
aI25304
aI27221
aI28525
aI28905
aI30238
aI30808
aI32194
aI33173
aI34402
aI34881
aI35352
aI36483
aI37869
aI38409
aI38809
aa(lp131
I0
aI0
aI0
aI0
aI0
aI0
aI0
aI0
aI3
aI6
aI14
aI1
aI1
aI21
aI54
aI84
aI53
aI39
aI31
aI51
aI93
aI105
aI158
aI109
aI78
aI94
aI83
aI95
aI85
aI73
aI113
aI115
aI92
aI96
aI81
aI89
aI120
aI105
aI106
aI136
aI119
aI144
aI157
aI166
aI152
aI128
aI115
aI137
aI128
aI121
aI206
aI150
aI138
aI155
aI130
aI136
aI166
aI141
aI121
aI108
aa(lp132
I0
aI0
aI0
aI0
aI0
aI0
aI0
aI0
aI0
aI1
aI0
aI0
aI12
aI38
aI183
aI692
aI1650
aI2775
aI2958
aI2012
aI1505
aI1491
aI1433
aI1658
aI1831
aI1869
aI2062
aI2210
aI2138
aI2201
aI2153
aI2287
aI2081
aI2238
aI2716
aI2911
aI3009
aI3378
aI3439
aI3643
aI3712
aI3641
aI3745
aI3811
aI4094
aI4390
aI4420
aI4366
aI4390
aI4470
aI4644
aI4725
aI4789
aI4815
aI4986
aI5205
aI5369
aI5548
aI5680
aI5861
aa(lp133
I0
aI0
aI0
aI0
aI0
aI0
aI0
aI0
aI1
aI1
aI2
aI9
aI17
aI246
aI361
aI990
aI1829
aI2215
aI2700
aI2831
aI2323
aI2242
aI2208
aI2486
aI3054
aI3597
aI4103
aI5043
aI5495
aI6001
aI7076
aI7755
aI8709
aI9504
aI10667
aI12102
aI13449
aI15078
aI15870
aI17355
aI18255
aI19531
aI20271
aI21011
aI21830
aI22835
aI24018
aI24833
aI26151
aI27162
aI28401
aI28793
aI30309
aI32020
aI33067
aI33780
aI34636
aI36021
aI37469
aI38587
aa(lp134
I0
aI0
aI0
aI0
aI0
aI0
aI6
aI11
aI2
aI1
aI3
aI16
aI28
aI103
aI157
aI310
aI670
aI1026
aI1089
aI1244
aI1228
aI1157
aI1271
aI1521
aI1723
aI1696
aI1779
aI1995
aI2162
aI2116
aI2194
aI2197
aI2350
aI2539
aI2530
aI2644
aI2757
aI3098
aI3258
aI3468
aI3602
aI3803
aI4058
aI4137
aI4218
aI4225
aI4386
aI4259
aI4238
aI4486
aI4550
aI4825
aI4651
aI4822
aI4983
aI5337
aI5371
aI5775
aI5967
aI6212
aa(lp135
I0
aI0
aI0
aI0
aI0
aI2
aI2
aI4
aI5
aI5
aI5
aI11
aI24
aI72
aI230
aI702
aI1766
aI2630
aI3257
aI3290
aI3252
aI3354
aI3487
aI3628
aI4100
aI4193
aI4613
aI4774
aI4990
aI5341
aI5462
aI5355
aI5775
aI5935
aI6415
aI6673
aI6874
aI7285
aI7990
aI8322
aI8645
aI9081
aI9377
aI9472
aI9831
aI10332
aI10388
aI10711
aI11316
aI11540
aI11891
aI12108
aI12380
aI12913
aI13530
aI13760
aI13846
aI14268
aI14500
aI15171
aa(lp136
I0
aI0
aI0
aI0
aI0
aI0
aI0
aI0
aI0
aI0
aI0
aI0
aI1
aI4
aI4
aI15
aI52
aI114
aI157
aI175
aI174
aI201
aI296
aI432
aI361
aI312
aI317
aI360
aI387
aI475
aI499
aI423
aI452
aI460
aI372
aI430
aI492
aI491
aI503
aI537
aI606
aI643
aI717
aI655
aI690
aI758
aI823
aI779
aI841
aI919
aI842
aI913
aI1016
aI1006
aI1046
aI1161
aI1218
aI1179
aI1291
aI1467
aa(lp137
I0
aI0
aI0
aI0
aI0
aI0
aI0
aI0
aI0
aI3
aI1
aI1
aI0
aI5
aI8
aI4
aI13
aI38
aI51
aI111
aI99
aI69
aI58
aI50
aI79
aI101
aI110
aI104
aI113
aI96
aI95
aI124
aI112
aI120
aI143
aI179
aI187
aI233
aI222
aI168
aI173
aI228
aI261
aI275
aI251
aI245
aI258
aI297
aI318
aI337
aI312
aI338
aI332
aI372
aI339
aI407
aI422
aI383
aI418
aI403
aa(lp138
I0
aI0
aI0
aI0
aI0
aI0
aI0
aI0
aI2
aI0
aI0
aI1
aI4
aI3
aI3
aI31
aI71
aI107
aI169
aI181
aI171
aI269
aI293
aI291
aI440
aI466
aI492
aI473
aI571
aI687
aI788
aI876
aI783
aI847
aI821
aI959
aI1080
aI1052
aI934
aI1186
aI1311
aI1235
aI1229
aI1273
aI1390
aI1627
aI1682
aI1661
aI1631
aI1682
aI1755
aI1769
aI1875
aI1810
aI1967
aI2085
aI2121
aI2220
aI2204
aI2224
aa(lp139
I0
aI0
aI0
aI0
aI0
aI3
aI10
aI10
aI17
aI63
aI315
aI687
aI1479
aI3317
aI5989
aI9169
aI12395
aI16761
aI21189
aI26239
aI31240
aI34401
aI38382
aI42452
aI45711
aI51186
aI55327
aI61375
aI67826
aI74111
aI79181
aI84322
aI90251
aI94329
aI99604
aI104423
aI112097
aI118675
aI124548
aI130973
aI139300
aI147142
aI155466
aI161408
aI167924
aI175573
aI183591
aI191455
aI200895
aI208158
aI216185
aI223043
aI232375
aI240632
aI247833
aI257661
aI267696
aI274263
aI282673
aI290772
aa(lp140
I0
aI0
aI0
aI0
aI0
aI0
aI0
aI0
aI0
aI0
aI0
aI0
aI0
aI0
aI4
aI11
aI24
aI105
aI214
aI305
aI345
aI311
aI419
aI536
aI450
aI403
aI414
aI422
aI448
aI593
aI603
aI554
aI505
aI497
aI580
aI606
aI701
aI667
aI763
aI773
aI778
aI853
aI907
aI1059
aI1033
aI1030
aI1152
aI1208
aI1188
aI1308
aI1249
aI1344
aI1355
aI1445
aI1506
aI1552
aI1648
aI1679
aI1718
aI1763
aa(lp141
I0
aI0
aI0
aI0
aI0
aI0
aI0
aI0
aI0
aI0
aI0
aI0
aI0
aI1
aI1
aI3
aI26
aI47
aI84
aI112
aI177
aI151
aI218
aI239
aI316
aI315
aI347
aI304
aI324
aI388
aI415
aI465
aI505
aI616
aI694
aI760
aI867
aI932
aI904
aI1084
aI1110
aI1257
aI1432
aI1375
aI1422
aI1517
aI1668
aI1680
aI1745
aI1728
aI1766
aI1823
aI1831
aI2000
aI2035
aI2023
aI2140
aI2217
aI2256
aI2274
aa(lp142
I0
aI0
aI0
aI0
aI0
aI0
aI0
aI0
aI0
aI0
aI0
aI0
aI0
aI1
aI1
aI3
aI14
aI36
aI71
aI121
aI167
aI187
aI166
aI162
aI176
aI178
aI200
aI217
aI203
aI231
aI216
aI258
aI251
aI268
aI265
aI287
aI276
aI321
aI311
aI303
aI364
aI355
aI392
aI424
aI405
aI482
aI431
aI436
aI423
aI447
aI466
aI412
aI430
aI488
aI483
aI497
aI558
aI539
aI543
aI534
aa(lp143
I0
aI0
aI0
aI0
aI0
aI0
aI0
aI0
aI0
aI0
aI0
aI0
aI0
aI0
aI0
aI4
aI6
aI19
aI13
aI29
aI40
aI33
aI45
aI56
aI40
aI56
aI51
aI52
aI41
aI40
aI48
aI35
aI53
aI48
aI79
aI68
aI66
aI61
aI62
aI49
aI66
aI67
aI58
aI88
aI90
aI84
aI95
aI94
aI109
aI107
aI111
aI106
aI108
aI137
aI161
aI179
aI145
aI170
aI151
aI188
aa(lp144
I0
aI0
aI0
aI0
aI0
aI0
aI0
aI0
aI0
aI0
aI0
aI0
aI0
aI0
aI0
aI0
aI0
aI3
aI7
aI12
aI5
aI10
aI12
aI8
aI18
aI12
aI19
aI11
aI27
aI24
aI19
aI18
aI19
aI15
aI24
aI36
aI32
aI36
aI34
aI43
aI51
aI60
aI42
aI41
aI50
aI30
aI33
aI38
aI28
aI43
aI45
aI49
aI57
aI72
aI83
aI57
aI56
aI81
aI82
aI70
aa(lp145
I0
aI0
aI0
aI0
aI0
aI0
aI0
aI0
aI0
aI0
aI0
aI0
aI0
aI0
aI0
aI6
aI52
aI182
aI188
aI86
aI40
aI32
aI26
aI40
aI39
aI26
aI24
aI20
aI29
aI41
aI29
aI22
aI24
aI32
aI27
aI22
aI31
aI20
aI21
aI23
aI25
aI24
aI24
aI36
aI32
aI43
aI36
aI28
aI21
aI51
aI50
aI66
aI58
aI73
aI74
aI103
aI111
aI132
aI128
aI155
aa(lp146
I0
aI0
aI0
aI0
aI0
aI0
aI0
aI0
aI0
aI0
aI0
aI2
aI19
aI88
aI91
aI33
aI19
aI16
aI21
aI38
aI25
aI37
aI18
aI21
aI13
aI20
aI16
aI9
aI36
aI44
aI32
aI30
aI29
aI27
aI29
aI26
aI17
aI23
aI25
aI27
aI21
aI29
aI25
aI30
aI42
aI36
aI46
aI36
aI55
aI53
aI61
aI60
aI60
aI53
aI90
aI101
aI105
aI89
aI80
aI140
aa(lp147
I0
aI0
aI0
aI0
aI0
aI0
aI0
aI0
aI0
aI0
aI0
aI0
aI0
aI3
aI1
aI16
aI24
aI47
aI55
aI71
aI70
aI89
aI78
aI78
aI101
aI84
aI119
aI191
aI179
aI202
aI224
aI256
aI285
aI294
aI262
aI348
aI361
aI401
aI415
aI452
aI524
aI574
aI611
aI654
aI698
aI700
aI809
aI777
aI892
aI852
aI823
aI826
aI858
aI918
aI996
aI1048
aI1110
aI1126
aI1156
aI1074
aa(lp148
I0
aI0
aI0
aI0
aI0
aI0
aI0
aI1
aI2
aI27
aI25
aI6
aI1
aI3
aI4
aI3
aI1
aI2
aI0
aI0
aI3
aI1
aI0
aI0
aI2
aI3
aI4
aI0
aI3
aI2
aI3
aI0
aI0
aI1
aI1
aI5
aI1
aI2
aI4
aI1
aI5
aI4
aI5
aI8
aI3
aI2
aI11
aI3
aI4
aI5
aI1
aI1
aI1
aI0
aI1
aI0
aI0
aI1
aI3
aI1
aa(lp149
I0
aI0
aI0
aI0
aI0
aI0
aI0
aI0
aI0
aI0
aI0
aI0
aI0
aI0
aI4
aI2
aI1
aI10
aI19
aI13
aI17
aI23
aI28
aI31
aI27
aI34
aI44
aI32
aI34
aI30
aI46
aI28
aI34
aI35
aI46
aI46
aI41
aI54
aI73
aI80
aI102
aI100
aI102
aI93
aI86
aI65
aI94
aI73
aI86
aI106
aI90
aI106
aI120
aI116
aI106
aI101
aI99
aI139
aI148
aI150
aa(lp150
I0
aI0
aI0
aI0
aI0
aI0
aI0
aI0
aI0
aI0
aI0
aI1
aI0
aI5
aI4
aI24
aI34
aI41
aI46
aI43
aI46
aI58
aI57
aI76
aI82
aI96
aI103
aI133
aI157
aI177
aI168
aI190
aI220
aI267
aI327
aI395
aI409
aI398
aI442
aI536
aI567
aI535
aI559
aI591
aI628
aI700
aI666
aI701
aI717
aI713
aI815
aI840
aI887
aI901
aI901
aI940
aI1003
aI1042
aI1043
aI1085
aa(lp151
I0
aI0
aI0
aI0
aI0
aI0
aI0
aI0
aI0
aI0
aI0
aI0
aI0
aI0
aI2
aI10
aI20
aI21
aI17
aI20
aI22
aI21
aI28
aI17
aI21
aI23
aI25
aI32
aI20
aI38
aI36
aI39
aI43
aI28
aI36
aI62
aI47
aI73
aI67
aI59
aI74
aI86
aI88
aI82
aI83
aI113
aI95
aI120
aI114
aI96
aI102
aI106
aI108
aI117
aI136
aI131
aI148
aI180
aI159
aI193
aa(lp152
I0
aI0
aI0
aI0
aI0
aI0
aI0
aI0
aI1
aI0
aI0
aI1
aI4
aI2
aI5
aI10
aI30
aI44
aI47
aI63
aI49
aI38
aI43
aI36
aI44
aI41
aI46
aI55
aI52
aI62
aI71
aI71
aI90
aI100
aI97
aI119
aI132
aI136
aI166
aI156
aI161
aI160
aI112
aI137
aI198
aI189
aI216
aI205
aI190
aI229
aI232
aI237
aI256
aI279
aI271
aI282
aI322
aI308
aI318
aI340
aa(lp153
I0
aI0
aI0
aI0
aI0
aI0
aI0
aI0
aI0
aI0
aI0
aI0
aI1
aI1
aI0
aI0
aI1
aI3
aI4
aI5
aI11
aI11
aI10
aI12
aI6
aI10
aI6
aI13
aI12
aI16
aI10
aI9
aI14
aI23
aI27
aI21
aI21
aI28
aI25
aI18
aI24
aI20
aI28
aI30
aI27
aI23
aI21
aI24
aI23
aI16
aI19
aI19
aI18
aI15
aI21
aI17
aI14
aI23
aI20
aI26
aa(lp154
I0
aI0
aI0
aI0
aI0
aI0
aI0
aI0
aI0
aI0
aI0
aI0
aI0
aI2
aI0
aI1
aI2
aI1
aI1
aI2
aI3
aI0
aI2
aI3
aI3
aI4
aI3
aI3
aI3
aI3
aI6
aI3
aI6
aI3
aI7
aI4
aI15
aI12
aI12
aI16
aI19
aI17
aI15
aI10
aI7
aI13
aI23
aI13
aI20
aI14
aI12
aI16
aI16
aI17
aI20
aI17
aI8
aI11
aI8
aI6
aa(lp155
I0
aI0
aI0
aI0
aI0
aI0
aI0
aI0
aI0
aI0
aI0
aI0
aI0
aI0
aI1
aI5
aI3
aI5
aI14
aI19
aI33
aI13
aI12
aI10
aI13
aI23
aI13
aI18
aI16
aI27
aI22
aI30
aI33
aI25
aI26
aI29
aI28
aI41
aI40
aI25
aI39
aI38
aI19
aI33
aI30
aI37
aI32
aI44
aI64
aI46
aI62
aI60
aI51
aI58
aI66
aI61
aI60
aI78
aI80
aI77
aa(lp156
I0
aI0
aI0
aI0
aI0
aI0
aI1
aI0
aI7
aI6
aI13
aI41
aI117
aI235
aI367
aI479
aI629
aI644
aI744
aI810
aI855
aI969
aI1053
aI1201
aI1395
aI1474
aI1535
aI1617
aI1886
aI1903
aI2191
aI2399
aI2505
aI2740
aI2909
aI3002
aI3085
aI3258
aI3508
aI3573
aI3743
aI3977
aI4156
aI4494
aI4742
aI4895
aI5178
aI5359
aI5466
aI5964
aI6024
aI6259
aI6471
aI6827
aI7048
aI6976
aI7276
aI7626
aI7736
aI8076
aa(lp157
I0
aI0
aI0
aI0
aI0
aI0
aI39
aI28
aI2
aI1
aI1
aI21
aI57
aI18
aI84
aI242
aI585
aI1358
aI2016
aI2576
aI2851
aI3339
aI4134
aI5482
aI7014
aI7447
aI7057
aI7268
aI7607
aI8101
aI8730
aI9002
aI9951
aI10742
aI11468
aI11981
aI12768
aI13744
aI14350
aI15657
aI17425
aI18097
aI18797
aI19283
aI20093
aI21378
aI22423
aI23453
aI24669
aI26158
aI26969
aI28347
aI28735
aI30224
aI31107
aI32534
aI33715
aI35529
aI36339
aI37368
aa(lp158
I0
aI0
aI0
aI0
aI0
aI1
aI471
aI24
aI4
aI2
aI3
aI62
aI395
aI40
aI95
aI246
aI602
aI1340
aI2887
aI3847
aI3966
aI4307
aI4849
aI5724
aI6836
aI8390
aI9115
aI10043
aI11200
aI12070
aI12335
aI12672
aI13282
aI14492
aI15783
aI17751
aI19006
aI20376
aI21117
aI23086
aI24402
aI26109
aI27741
aI30020
aI31914
aI32935
aI35168
aI36951
aI38011
aI39775
aI41331
aI42656
aI43387
aI44647
aI46127
aI47741
aI48972
aI49969
aI50776
aI52082
aa(lp159
I0
aI0
aI0
aI0
aI0
aI0
aI0
aI10
aI0
aI0
aI0
aI22
aI28
aI12
aI38
aI122
aI411
aI975
aI1368
aI1722
aI2090
aI2598
aI3111
aI3783
aI4061
aI4250
aI4310
aI4332
aI4597
aI5036
aI4944
aI5045
aI5018
aI5067
aI5148
aI5402
aI5916
aI6153
aI6396
aI6586
aI7012
aI7293
aI7572
aI7797
aI7942
aI8157
aI8521
aI8833
aI8783
aI9155
aI9459
aI9471
aI10094
aI10711
aI11000
aI11299
aI11688
aI12493
aI12747
aI13212
aa(lp160
I0
aI0
aI0
aI0
aI0
aI0
aI0
aI0
aI0
aI0
aI0
aI3
aI12
aI5
aI53
aI74
aI165
aI321
aI500
aI585
aI661
aI781
aI922
aI1077
aI1280
aI1155
aI1101
aI1240
aI1279
aI1364
aI1377
aI1277
aI1388
aI1573
aI1529
aI1592
aI1662
aI1732
aI1937
aI2033
aI2045
aI2089
aI2082
aI2137
aI2247
aI2291
aI2253
aI2252
aI2397
aI2471
aI2510
aI2463
aI2580
aI2639
aI2678
aI2771
aI2867
aI3022
aI3232
aI3257
aa(lp161
I0
aI0
aI0
aI0
aI0
aI0
aI0
aI0
aI0
aI0
aI0
aI1
aI0
aI4
aI47
aI211
aI678
aI1525
aI1302
aI793
aI517
aI391
aI364
aI406
aI464
aI534
aI681
aI772
aI776
aI800
aI691
aI705
aI698
aI663
aI727
aI893
aI1008
aI997
aI1137
aI1141
aI1141
aI1326
aI1273
aI1346
aI1394
aI1430
aI1380
aI1331
aI1398
aI1528
aI1475
aI1501
aI1543
aI1525
aI1621
aI1683
aI1743
aI1890
aI1882
aI1877
aa(lp162
I0
aI0
aI0
aI0
aI0
aI0
aI6
aI3
aI1
aI1
aI3
aI13
aI33
aI11
aI18
aI70
aI151
aI289
aI423
aI360
aI413
aI579
aI540
aI627
aI802
aI706
aI706
aI731
aI780
aI844
aI942
aI1030
aI922
aI891
aI963
aI1044
aI1101
aI1177
aI1182
aI1228
aI1252
aI1459
aI1379
aI1375
aI1382
aI1437
aI1548
aI1555
aI1526
aI1646
aI1605
aI1632
aI1675
aI1892
aI1910
aI2068
aI2304
aI2736
aI2882
aI2874
aa(lp163
I0
aI0
aI0
aI0
aI0
aI3
aI0
aI1
aI1
aI1
aI6
aI7
aI28
aI123
aI199
aI204
aI195
aI302
aI402
aI395
aI470
aI558
aI515
aI620
aI728
aI884
aI963
aI873
aI909
aI1082
aI1009
aI1029
aI1027
aI1058
aI1092
aI1313
aI1436
aI1409
aI1357
aI1330
aI1421
aI1533
aI1618
aI1716
aI1785
aI1856
aI1783
aI1696
aI1769
aI1803
aI2026
aI1990
aI2023
aI2074
aI2281
aI2384
aI2310
aI2363
aI2519
aI2832
aa(lp164
I0
aI0
aI0
aI0
aI0
aI1
aI0
aI0
aI1
aI0
aI0
aI5
aI19
aI123
aI140
aI179
aI276
aI567
aI864
aI1216
aI1629
aI2464
aI2942
aI3419
aI3784
aI4079
aI4252
aI4396
aI4619
aI5493
aI5978
aI6453
aI6884
aI7328
aI7580
aI8452
aI9175
aI9293
aI10187
aI11321
aI12294
aI12776
aI13558
aI14358
aI14919
aI15747
aI16536
aI17630
aI18378
aI18932
aI19284
aI19944
aI20685
aI22073
aI22503
aI23141
aI23336
aI23622
aI24085
aI24066
aa(lp165
I0
aI0
aI0
aI0
aI0
aI0
aI0
aI0
aI1
aI14
aI37
aI35
aI25
aI34
aI29
aI30
aI15
aI30
aI25
aI45
aI75
aI54
aI62
aI86
aI100
aI66
aI82
aI51
aI38
aI35
aI54
aI51
aI61
aI72
aI47
aI44
aI71
aI90
aI85
aI85
aI82
aI104
aI103
aI87
aI93
aI130
aI73
aI80
aI95
aI112
aI129
aI92
aI73
aI82
aI54
aI89
aI106
aI91
aI93
aI106
aa(lp166
I0
aI0
aI0
aI0
aI0
aI0
aI0
aI0
aI0
aI0
aI4
aI37
aI351
aI1655
aI1815
aI1083
aI972
aI1196
aI1134
aI911
aI871
aI870
aI1016
aI1274
aI1459
aI1324
aI1230
aI1230
aI1144
aI1190
aI1234
aI1370
aI1426
aI1609
aI1634
aI1812
aI1936
aI2108
aI2080
aI2086
aI2269
aI2479
aI2490
aI2604
aI2530
aI2644
aI2698
aI2785
aI2818
aI2946
aI3085
aI2988
aI3113
aI3165
aI3178
aI3134
aI3347
aI3340
aI3320
aI3518
aa(lp167
I0
aI0
aI0
aI0
aI0
aI0
aI1
aI1
aI1
aI5
aI25
aI366
aI245
aI1182
aI1689
aI1128
aI1005
aI879
aI878
aI1123
aI1284
aI1405
aI1831
aI2169
aI2587
aI3093
aI3304
aI3538
aI3702
aI4188
aI4496
aI5049
aI5558
aI6301
aI7107
aI7872
aI8864
aI9743
aI10646
aI10971
aI11513
aI12285
aI12704
aI13471
aI13895
aI14243
aI15179
aI15866
aI16053
aI16691
aI17482
aI18190
aI19240
aI20426
aI21471
aI22098
aI22496
aI23039
aI23126
aI23846
aa(lp168
I0
aI0
aI0
aI0
aI0
aI0
aI0
aI0
aI0
aI4
aI10
aI157
aI114
aI269
aI528
aI342
aI313
aI381
aI428
aI508
aI691
aI825
aI846
aI867
aI1064
aI1218
aI1244
aI1228
aI1330
aI1359
aI1366
aI1345
aI1513
aI1512
aI1646
aI1742
aI1913
aI1969
aI2136
aI2199
aI2115
aI2260
aI2536
aI2850
aI2707
aI2703
aI2812
aI2781
aI2830
aI2826
aI2943
aI3013
aI3269
aI3234
aI3328
aI3304
aI3352
aI3610
aI3701
aI3842
aa(lp169
I0
aI0
aI0
aI0
aI0
aI0
aI2
aI0
aI3
aI8
aI13
aI49
aI218
aI845
aI1407
aI1099
aI979
aI1093
aI1139
aI1306
aI1733
aI2021
aI2364
aI2587
aI2730
aI2799
aI2881
aI2921
aI2881
aI2992
aI3115
aI3211
aI3265
aI3568
aI3899
aI4454
aI4693
aI4628
aI4866
aI5040
aI5315
aI5608
aI5837
aI6187
aI5939
aI6277
aI6559
aI6774
aI6765
aI6955
aI7131
aI7250
aI7633
aI7779
aI8075
aI8343
aI8581
aI8976
aI9656
aI9922
aa(lp170
I0
aI0
aI0
aI0
aI0
aI0
aI1
aI0
aI4
aI1
aI0
aI0
aI0
aI4
aI12
aI33
aI48
aI101
aI142
aI180
aI209
aI201
aI177
aI127
aI148
aI209
aI188
aI322
aI402
aI355
aI278
aI305
aI301
aI370
aI415
aI366
aI317
aI327
aI363
aI427
aI452
aI370
aI428
aI352
aI457
aI530
aI505
aI614
aI685
aI660
aI641
aI616
aI670
aI637
aI657
aI704
aI719
aI762
aI944
aI958
aa(lp171
I0
aI0
aI0
aI0
aI0
aI0
aI0
aI0
aI0
aI0
aI0
aI0
aI1
aI7
aI6
aI27
aI27
aI27
aI32
aI59
aI43
aI40
aI46
aI50
aI47
aI51
aI75
aI55
aI59
aI57
aI71
aI98
aI92
aI98
aI93
aI97
aI138
aI117
aI144
aI124
aI132
aI166
aI153
aI190
aI161
aI241
aI188
aI194
aI222
aI168
aI223
aI188
aI195
aI211
aI269
aI239
aI247
aI272
aI236
aI263
aa(lp172
I0
aI0
aI0
aI0
aI0
aI0
aI0
aI0
aI1
aI0
aI1
aI2
aI6
aI27
aI61
aI98
aI82
aI82
aI156
aI99
aI112
aI172
aI169
aI215
aI306
aI318
aI336
aI298
aI344
aI394
aI630
aI611
aI532
aI659
aI571
aI642
aI615
aI651
aI726
aI748
aI650
aI675
aI778
aI955
aI903
aI964
aI982
aI990
aI1012
aI1038
aI1062
aI1190
aI1197
aI1103
aI1214
aI1236
aI1282
aI1450
aI1599
aI1544
aa(lp173
I0
aI0
aI0
aI0
aI1
aI6
aI7
aI30
aI123
aI315
aI855
aI711
aI1705
aI3390
aI5460
aI7802
aI10650
aI12098
aI13839
aI15742
aI18311
aI21349
aI24298
aI27269
aI30087
aI34736
aI39445
aI42196
aI44421
aI47168
aI48597
aI51016
aI54028
aI58624
aI62709
aI67567
aI72557
aI76966
aI80622
aI84535
aI88320
aI92114
aI97973
aI102459
aI107452
aI112634
aI117281
aI122187
aI126719
aI131649
aI136750
aI142967
aI147815
aI152869
aI156894
aI162594
aI169527
aI174637
aI180786
aI186400
aa(lp174
I0
aI0
aI0
aI0
aI0
aI0
aI0
aI0
aI0
aI0
aI0
aI0
aI0
aI1
aI1
aI8
aI39
aI124
aI330
aI457
aI534
aI679
aI812
aI956
aI1251
aI1388
aI1582
aI1637
aI1779
aI2079
aI2137
aI2248
aI2410
aI2527
aI2799
aI2816
aI2977
aI3106
aI3345
aI3751
aI3875
aI3951
aI3997
aI4607
aI4907
aI5178
aI5236
aI5696
aI5746
aI5813
aI6135
aI6281
aI6433
aI6669
aI6990
aI7557
aI7669
aI8205
aI8421
aI8725
aa(lp175
I0
aI0
aI0
aI0
aI0
aI0
aI0
aI0
aI0
aI0
aI0
aI0
aI1
aI2
aI1
aI12
aI54
aI96
aI159
aI228
aI333
aI468
aI575
aI856
aI1021
aI1281
aI1646
aI1848
aI2153
aI2353
aI2370
aI2596
aI2749
aI2990
aI3364
aI3640
aI3822
aI4228
aI4738
aI5084
aI5522
aI5991
aI6166
aI6853
aI7331
aI7776
aI8410
aI8921
aI9055
aI9473
aI10124
aI10714
aI10570
aI11082
aI11516
aI11547
aI11702
aI11956
aI12018
aI12403
aa(lp176
I0
aI0
aI0
aI0
aI0
aI0
aI0
aI0
aI0
aI0
aI0
aI0
aI0
aI0
aI1
aI4
aI43
aI201
aI353
aI429
aI555
aI632
aI782
aI924
aI1093
aI1150
aI1120
aI1210
aI1132
aI1273
aI1351
aI1446
aI1323
aI1393
aI1384
aI1400
aI1433
aI1487
aI1571
aI1690
aI1815
aI1707
aI1760
aI1735
aI1755
aI1919
aI2018
aI2117
aI2133
aI2081
aI2069
aI2215
aI2330
aI2361
aI2399
aI2395
aI2553
aI2695
aI2755
aI2790
aa(lp177
I0
aI0
aI0
aI0
aI0
aI0
aI0
aI0
aI0
aI0
aI0
aI0
aI0
aI0
aI2
aI2
aI15
aI61
aI102
aI124
aI150
aI135
aI169
aI191
aI236
aI283
aI273
aI335
aI405
aI394
aI404
aI397
aI343
aI331
aI318
aI339
aI342
aI390
aI346
aI379
aI445
aI393
aI402
aI469
aI420
aI492
aI498
aI512
aI564
aI523
aI593
aI589
aI511
aI569
aI555
aI588
aI620
aI705
aI665
aI710
aa(lp178
I0
aI0
aI0
aI0
aI0
aI0
aI0
aI0
aI0
aI0
aI0
aI0
aI0
aI0
aI0
aI4
aI2
aI10
aI17
aI19
aI21
aI29
aI53
aI52
aI72
aI99
aI90
aI127
aI154
aI157
aI148
aI189
aI192
aI177
aI143
aI173
aI198
aI247
aI232
aI277
aI250
aI298
aI346
aI247
aI282
aI280
aI339
aI316
aI298
aI329
aI342
aI350
aI349
aI308
aI371
aI357
aI351
aI428
aI489
aI460
aa(lp179
I0
aI0
aI0
aI0
aI0
aI0
aI0
aI0
aI0
aI0
aI0
aI0
aI0
aI0
aI0
aI1
aI3
aI14
aI32
aI51
aI42
aI67
aI90
aI91
aI89
aI132
aI127
aI175
aI190
aI180
aI224
aI152
aI152
aI160
aI171
aI169
aI189
aI221
aI195
aI196
aI217
aI263
aI274
aI290
aI297
aI353
aI370
aI353
aI423
aI444
aI451
aI373
aI367
aI384
aI449
aI475
aI424
aI532
aI546
aI542
aa(lp180
I0
aI0
aI0
aI0
aI0
aI0
aI0
aI0
aI0
aI0
aI0
aI1
aI1
aI1
aI22
aI29
aI28
aI32
aI42
aI44
aI68
aI71
aI152
aI159
aI184
aI183
aI155
aI168
aI168
aI208
aI191
aI209
aI214
aI218
aI195
aI204
aI267
aI275
aI273
aI276
aI333
aI327
aI323
aI361
aI395
aI387
aI377
aI423
aI421
aI423
aI488
aI537
aI515
aI486
aI537
aI547
aI541
aI587
aI572
aI578
aa(lp181
I0
aI0
aI0
aI0
aI0
aI0
aI0
aI0
aI0
aI0
aI0
aI1
aI1
aI6
aI36
aI44
aI47
aI70
aI79
aI96
aI137
aI207
aI279
aI430
aI594
aI818
aI833
aI813
aI892
aI962
aI939
aI1123
aI1321
aI1532
aI1586
aI1674
aI1788
aI2069
aI2275
aI2518
aI2696
aI3052
aI3181
aI3357
aI3539
aI3881
aI4118
aI4171
aI4188
aI4437
aI4419
aI4994
aI5119
aI5275
aI5338
aI5350
aI5640
aI5819
aI5978
aI5973
aa(lp182
I0
aI0
aI0
aI0
aI0
aI0
aI0
aI0
aI0
aI0
aI1
aI2
aI0
aI0
aI0
aI2
aI0
aI3
aI2
aI6
aI6
aI15
aI18
aI19
aI11
aI12
aI15
aI6
aI8
aI8
aI12
aI14
aI12
aI5
aI9
aI10
aI21
aI22
aI17
aI12
aI15
aI16
aI20
aI11
aI7
aI13
aI15
aI32
aI17
aI27
aI28
aI18
aI17
aI15
aI17
aI52
aI42
aI31
aI28
aI24
aa(lp183
I0
aI0
aI0
aI0
aI0
aI0
aI0
aI0
aI0
aI0
aI0
aI0
aI6
aI6
aI10
aI14
aI20
aI36
aI39
aI62
aI74
aI88
aI146
aI157
aI222
aI213
aI229
aI259
aI237
aI288
aI276
aI318
aI314
aI319
aI340
aI405
aI423
aI467
aI421
aI493
aI479
aI506
aI520
aI563
aI594
aI676
aI628
aI663
aI639
aI643
aI623
aI616
aI671
aI619
aI743
aI733
aI815
aI770
aI839
aI830
aa(lp184
I0
aI0
aI0
aI0
aI0
aI0
aI0
aI0
aI0
aI0
aI0
aI0
aI0
aI6
aI28
aI62
aI106
aI169
aI184
aI208
aI193
aI244
aI368
aI431
aI531
aI603
aI510
aI623
aI645
aI721
aI850
aI928
aI1146
aI1336
aI1541
aI1500
aI1812
aI1915
aI2101
aI2272
aI2446
aI2606
aI2949
aI3091
aI3343
aI3536
aI3664
aI3793
aI4034
aI4214
aI4407
aI4420
aI4689
aI5098
aI5212
aI5135
aI5449
aI5461
aI5413
aI5560
aa(lp185
I0
aI0
aI0
aI0
aI0
aI0
aI0
aI0
aI0
aI0
aI0
aI1
aI5
aI16
aI15
aI27
aI46
aI44
aI100
aI144
aI146
aI136
aI189
aI223
aI257
aI268
aI278
aI271
aI294
aI282
aI330
aI406
aI345
aI341
aI366
aI359
aI363
aI377
aI383
aI458
aI476
aI525
aI530
aI567
aI530
aI573
aI595
aI603
aI588
aI694
aI639
aI650
aI732
aI834
aI796
aI790
aI810
aI902
aI871
aI894
aa(lp186
I0
aI0
aI0
aI0
aI0
aI1
aI1
aI4
aI0
aI1
aI1
aI3
aI4
aI18
aI48
aI58
aI85
aI108
aI146
aI173
aI222
aI270
aI365
aI444
aI505
aI486
aI482
aI498
aI517
aI635
aI620
aI693
aI617
aI604
aI708
aI737
aI799
aI889
aI869
aI949
aI1050
aI1006
aI1014
aI1102
aI1173
aI1204
aI1287
aI1296
aI1309
aI1420
aI1430
aI1475
aI1405
aI1465
aI1583
aI1657
aI1621
aI1784
aI1798
aI1859
aa(lp187
I0
aI0
aI0
aI0
aI0
aI0
aI0
aI0
aI0
aI1
aI0
aI0
aI0
aI0
aI0
aI2
aI3
aI6
aI8
aI23
aI23
aI42
aI58
aI38
aI40
aI38
aI45
aI42
aI66
aI68
aI79
aI58
aI50
aI59
aI60
aI90
aI87
aI60
aI87
aI88
aI103
aI114
aI125
aI98
aI123
aI106
aI142
aI155
aI158
aI221
aI221
aI178
aI153
aI168
aI213
aI201
aI165
aI206
aI203
aI188
aa(lp188
I0
aI0
aI0
aI0
aI0
aI0
aI0
aI0
aI0
aI0
aI0
aI0
aI2
aI0
aI0
aI2
aI7
aI4
aI12
aI11
aI2
aI15
aI16
aI19
aI10
aI15
aI11
aI16
aI20
aI22
aI30
aI19
aI12
aI29
aI21
aI25
aI27
aI31
aI30
aI35
aI29
aI35
aI41
aI31
aI29
aI32
aI52
aI51
aI60
aI61
aI47
aI31
aI38
aI49
aI46
aI64
aI60
aI69
aI52
aI61
aa(lp189
I0
aI0
aI0
aI0
aI0
aI0
aI0
aI0
aI0
aI0
aI0
aI0
aI0
aI3
aI1
aI3
aI6
aI3
aI6
aI10
aI13
aI28
aI31
aI39
aI50
aI39
aI69
aI89
aI96
aI144
aI125
aI99
aI91
aI93
aI87
aI102
aI102
aI109
aI129
aI143
aI154
aI141
aI177
aI173
aI210
aI181
aI194
aI175
aI218
aI208
aI226
aI241
aI301
aI322
aI367
aI358
aI334
aI283
aI329
aI302
aa(lp190
I0
aI0
aI0
aI0
aI3
aI6
aI1
aI6
aI28
aI72
aI93
aI101
aI169
aI356
aI617
aI926
aI1267
aI1806
aI2421
aI3195
aI3680
aI4308
aI4960
aI5467
aI6146
aI6791
aI7517
aI8366
aI9122
aI9897
aI10543
aI11376
aI11905
aI12997
aI14304
aI15267
aI15820
aI16603
aI17581
aI18488
aI20152
aI21541
aI22377
aI23622
aI24354
aI25243
aI26310
aI27602
aI28669
aI29545
aI30400
aI32003
aI33864
aI35445
aI36402
aI37795
aI38682
aI39411
aI40647
aI42570
aa(lp191
I0
aI0
aI0
aI0
aI0
aI0
aI0
aI0
aI0
aI0
aI0
aI0
aI1
aI1
aI8
aI25
aI109
aI204
aI337
aI379
aI463
aI630
aI722
aI812
aI893
aI1037
aI1049
aI1092
aI1172
aI1126
aI1110
aI1241
aI1420
aI1414
aI1533
aI1524
aI1548
aI1769
aI1820
aI1981
aI2039
aI2246
aI2396
aI2336
aI2405
aI2625
aI2683
aI2683
aI2996
aI3105
aI3244
aI3417
aI3599
aI3588
aI3747
aI3947
aI4087
aI4170
aI4284
aI4354
aa(lp192
I0
aI0
aI0
aI0
aI0
aI0
aI0
aI0
aI0
aI0
aI0
aI0
aI1
aI1
aI12
aI38
aI87
aI124
aI214
aI256
aI405
aI528
aI609
aI695
aI801
aI811
aI898
aI1044
aI1124
aI1179
aI1331
aI1442
aI1480
aI1582
aI1845
aI1995
aI2036
aI2314
aI2622
aI2807
aI2957
aI3223
aI3327
aI3540
aI3886
aI4122
aI4353
aI4419
aI4657
aI4729
aI5104
aI5213
aI5165
aI5414
aI5464
aI5589
aI5875
aI6139
aI6084
aI6182
aa(lp193
I0
aI0
aI0
aI0
aI0
aI0
aI0
aI0
aI0
aI0
aI0
aI0
aI0
aI0
aI3
aI22
aI57
aI119
aI190
aI210
aI274
aI283
aI384
aI388
aI528
aI517
aI534
aI525
aI541
aI557
aI581
aI628
aI599
aI584
aI593
aI634
aI681
aI694
aI661
aI659
aI763
aI757
aI841
aI832
aI915
aI897
aI893
aI964
aI1030
aI1058
aI1022
aI1208
aI1122
aI1188
aI1276
aI1285
aI1366
aI1323
aI1283
aI1256
aa(lp194
I0
aI0
aI0
aI0
aI0
aI0
aI0
aI0
aI0
aI0
aI0
aI0
aI0
aI0
aI1
aI9
aI19
aI30
aI89
aI84
aI104
aI105
aI109
aI134
aI123
aI142
aI119
aI127
aI133
aI122
aI135
aI122
aI131
aI122
aI168
aI152
aI152
aI174
aI162
aI194
aI214
aI216
aI215
aI232
aI210
aI238
aI241
aI247
aI248
aI263
aI286
aI283
aI278
aI278
aI318
aI334
aI350
aI375
aI356
aI320
aa(lp195
I0
aI0
aI0
aI0
aI0
aI0
aI0
aI0
aI0
aI0
aI0
aI0
aI0
aI0
aI0
aI4
aI3
aI12
aI18
aI39
aI33
aI33
aI25
aI53
aI76
aI54
aI81
aI106
aI115
aI66
aI47
aI56
aI83
aI84
aI82
aI88
aI81
aI72
aI95
aI111
aI139
aI135
aI152
aI146
aI143
aI158
aI153
aI174
aI158
aI188
aI160
aI163
aI139
aI169
aI175
aI184
aI165
aI201
aI229
aI211
aa(lp196
I0
aI0
aI0
aI0
aI0
aI0
aI0
aI0
aI0
aI0
aI0
aI0
aI0
aI0
aI2
aI5
aI31
aI57
aI83
aI110
aI184
aI218
aI171
aI149
aI92
aI80
aI74
aI74
aI88
aI81
aI87
aI67
aI74
aI57
aI89
aI81
aI100
aI91
aI99
aI92
aI115
aI114
aI120
aI119
aI133
aI142
aI167
aI182
aI124
aI144
aI152
aI141
aI178
aI202
aI233
aI219
aI292
aI304
aI317
aI370
aa(lp197
I0
aI0
aI0
aI0
aI0
aI0
aI0
aI0
aI0
aI0
aI0
aI1
aI4
aI15
aI36
aI41
aI68
aI119
aI144
aI116
aI89
aI61
aI68
aI75
aI71
aI76
aI88
aI101
aI102
aI92
aI87
aI83
aI93
aI89
aI101
aI118
aI124
aI131
aI108
aI121
aI153
aI160
aI133
aI136
aI167
aI193
aI215
aI176
aI172
aI195
aI199
aI217
aI263
aI240
aI260
aI251
aI277
aI249
aI297
aI342
aa(lp198
I0
aI0
aI0
aI0
aI0
aI0
aI0
aI0
aI0
aI0
aI0
aI0
aI6
aI10
aI24
aI43
aI74
aI173
aI171
aI159
aI174
aI173
aI185
aI272
aI343
aI369
aI454
aI455
aI553
aI581
aI648
aI721
aI822
aI783
aI843
aI959
aI1008
aI1087
aI1220
aI1321
aI1421
aI1543
aI1602
aI1719
aI1786
aI1925
aI2002
aI2066
aI2242
aI2360
aI2385
aI2461
aI2569
aI2677
aI2609
aI2675
aI2739
aI2727
aI2882
aI2851
aa(lp199
I0
aI0
aI0
aI0
aI0
aI0
aI0
aI0
aI0
aI5
aI6
aI2
aI6
aI13
aI35
aI39
aI15
aI9
aI1
aI6
aI11
aI14
aI6
aI7
aI8
aI11
aI5
aI9
aI8
aI6
aI4
aI7
aI8
aI4
aI4
aI1
aI4
aI2
aI4
aI2
aI2
aI7
aI8
aI9
aI16
aI6
aI7
aI10
aI5
aI13
aI7
aI10
aI7
aI3
aI7
aI6
aI6
aI8
aI14
aI8
aa(lp200
I0
aI0
aI0
aI0
aI0
aI0
aI0
aI0
aI0
aI0
aI0
aI0
aI5
aI4
aI9
aI15
aI32
aI33
aI50
aI69
aI82
aI72
aI100
aI139
aI152
aI117
aI120
aI185
aI189
aI158
aI121
aI119
aI97
aI137
aI140
aI153
aI181
aI160
aI207
aI228
aI274
aI300
aI264
aI249
aI271
aI304
aI305
aI266
aI333
aI335
aI328
aI315
aI353
aI316
aI324
aI343
aI354
aI373
aI373
aI384
aa(lp201
I0
aI0
aI0
aI0
aI0
aI0
aI0
aI0
aI0
aI0
aI0
aI0
aI4
aI14
aI31
aI32
aI42
aI75
aI80
aI130
aI192
aI214
aI215
aI251
aI248
aI310
aI364
aI430
aI443
aI437
aI483
aI523
aI626
aI709
aI759
aI966
aI1108
aI1191
aI1299
aI1247
aI1343
aI1505
aI1562
aI1722
aI1663
aI1711
aI1790
aI1896
aI2098
aI2095
aI2239
aI2332
aI2308
aI2359
aI2468
aI2513
aI2599
aI2819
aI2956
aI3038
aa(lp202
I0
aI0
aI0
aI0
aI0
aI0
aI0
aI0
aI0
aI0
aI0
aI2
aI12
aI23
aI21
aI23
aI50
aI43
aI42
aI56
aI83
aI90
aI92
aI90
aI108
aI110
aI99
aI107
aI105
aI114
aI132
aI141
aI145
aI137
aI159
aI150
aI144
aI217
aI196
aI229
aI257
aI267
aI305
aI257
aI267
aI311
aI316
aI345
aI344
aI393
aI375
aI339
aI339
aI298
aI365
aI337
aI371
aI444
aI473
aI443
aa(lp203
I0
aI0
aI0
aI0
aI0
aI0
aI0
aI0
aI0
aI0
aI1
aI3
aI9
aI29
aI56
aI60
aI113
aI129
aI140
aI143
aI137
aI174
aI214
aI211
aI281
aI254
aI289
aI258
aI278
aI264
aI321
aI364
aI332
aI351
aI422
aI455
aI486
aI571
aI565
aI587
aI656
aI665
aI662
aI670
aI666
aI647
aI693
aI730
aI802
aI817
aI797
aI879
aI933
aI904
aI963
aI957
aI928
aI1066
aI992
aI1124
aa(lp204
I0
aI0
aI0
aI0
aI0
aI0
aI0
aI0
aI0
aI0
aI0
aI0
aI0
aI0
aI1
aI2
aI3
aI7
aI15
aI19
aI10
aI12
aI15
aI24
aI21
aI28
aI23
aI27
aI28
aI25
aI32
aI24
aI48
aI36
aI40
aI33
aI46
aI47
aI45
aI75
aI62
aI60
aI53
aI54
aI57
aI59
aI55
aI52
aI46
aI47
aI63
aI44
aI63
aI64
aI60
aI54
aI56
aI69
aI63
aI66
aa(lp205
I0
aI0
aI0
aI0
aI0
aI0
aI0
aI0
aI0
aI0
aI0
aI1
aI0
aI0
aI0
aI2
aI1
aI4
aI6
aI4
aI5
aI12
aI9
aI9
aI8
aI5
aI7
aI4
aI17
aI5
aI3
aI6
aI14
aI7
aI20
aI24
aI17
aI19
aI14
aI11
aI22
aI12
aI19
aI18
aI16
aI8
aI13
aI25
aI20
aI17
aI25
aI34
aI39
aI30
aI45
aI36
aI36
aI24
aI33
aI28
aa(lp206
I0
aI0
aI0
aI0
aI0
aI0
aI0
aI0
aI0
aI0
aI0
aI0
aI1
aI5
aI10
aI10
aI14
aI26
aI22
aI29
aI34
aI27
aI39
aI31
aI43
aI61
aI63
aI56
aI71
aI60
aI50
aI53
aI67
aI42
aI57
aI57
aI60
aI54
aI49
aI66
aI73
aI85
aI108
aI116
aI135
aI121
aI117
aI123
aI103
aI119
aI142
aI135
aI119
aI138
aI148
aI175
aI174
aI193
aI195
aI231
aa(lp207
I0
aI0
aI0
aI0
aI0
aI0
aI3
aI11
aI30
aI71
aI66
aI169
aI377
aI656
aI847
aI1069
aI1209
aI1446
aI1571
aI1898
aI2262
aI2626
aI3022
aI3362
aI3484
aI3798
aI4185
aI4607
aI4938
aI5308
aI5778
aI6137
aI6523
aI7133
aI7877
aI8281
aI8655
aI9191
aI9454
aI10145
aI10475
aI10776
aI11385
aI11741
aI12542
aI13284
aI13948
aI14302
aI14860
aI15597
aI16029
aI16636
aI17244
aI17897
aI18799
aI19227
aI19789
aI20348
aI21153
aI21448
aa(lp208
I0
aI0
aI0
aI0
aI0
aI0
aI7
aI9
aI0
aI1
aI0
aI6
aI4
aI12
aI69
aI201
aI798
aI2157
aI3543
aI4795
aI5512
aI6120
aI7335
aI8585
aI9754
aI10507
aI10815
aI11318
aI11945
aI12903
aI13454
aI13925
aI14605
aI15660
aI17205
aI17987
aI18781
aI20327
aI21231
aI22669
aI24245
aI25701
aI27381
aI28590
aI29676
aI31205
aI32896
aI34590
aI35950
aI36909
aI39026
aI40157
aI41194
aI42007
aI43181
aI45177
aI46570
aI47965
aI50374
aI52267
aa(lp209
I0
aI0
aI0
aI0
aI0
aI0
aI9
aI1
aI0
aI0
aI1
aI4
aI17
aI25
aI58
aI254
aI722
aI1858
aI4421
aI7145
aI7728
aI7537
aI8046
aI9514
aI11155
aI12706
aI13815
aI14747
aI16137
aI17136
aI16970
aI17634
aI17989
aI19534
aI21800
aI24646
aI26640
aI27863
aI29022
aI31499
aI34346
aI37590
aI40293
aI42668
aI44990
aI47202
aI50015
aI52277
aI54181
aI56916
aI59332
aI61203
aI63213
aI63603
aI65442
aI67252
aI68900
aI70556
aI72138
aI74860
aa(lp210
I0
aI0
aI0
aI0
aI0
aI0
aI3
aI3
aI0
aI0
aI0
aI7
aI13
aI9
aI34
aI110
aI378
aI994
aI1712
aI2194
aI2377
aI2561
aI3148
aI3449
aI3933
aI4282
aI4493
aI5158
aI5374
aI5532
aI6053
aI6174
aI6444
aI6727
aI7126
aI7447
aI7714
aI7946
aI7923
aI8352
aI8816
aI8946
aI9527
aI10278
aI10370
aI10774
aI11425
aI11721
aI12223
aI12422
aI12633
aI12756
aI13344
aI13883
aI14155
aI14678
aI15068
aI15368
aI16145
aI16207
aa(lp211
I0
aI0
aI0
aI0
aI0
aI0
aI0
aI0
aI0
aI0
aI1
aI3
aI3
aI6
aI17
aI51
aI144
aI276
aI443
aI575
aI651
aI666
aI810
aI953
aI1051
aI1119
aI1188
aI1332
aI1355
aI1515
aI1544
aI1628
aI1689
aI1884
aI1826
aI1845
aI1890
aI2071
aI2272
aI2412
aI2519
aI2542
aI2527
aI2812
aI2862
aI2873
aI3006
aI2893
aI3036
aI3205
aI3186
aI3134
aI3156
aI3231
aI3246
aI3405
aI3626
aI3779
aI3795
aI3964
aa(lp212
I0
aI0
aI0
aI0
aI0
aI0
aI0
aI0
aI0
aI0
aI0
aI0
aI1
aI3
aI11
aI86
aI317
aI894
aI1004
aI740
aI453
aI337
aI325
aI352
aI461
aI716
aI759
aI879
aI839
aI850
aI864
aI935
aI933
aI891
aI1053
aI1115
aI1257
aI1555
aI1541
aI1639
aI1787
aI1799
aI1714
aI1692
aI1739
aI1880
aI1971
aI1929
aI1950
aI2017
aI2091
aI2235
aI2373
aI2309
aI2385
aI2161
aI2433
aI2525
aI2527
aI2543
aa(lp213
I0
aI0
aI0
aI0
aI0
aI0
aI0
aI1
aI1
aI1
aI1
aI1
aI4
aI5
aI21
aI69
aI251
aI540
aI568
aI467
aI507
aI517
aI706
aI729
aI923
aI991
aI1056
aI1021
aI1095
aI1227
aI1151
aI1036
aI1054
aI1087
aI1254
aI1212
aI1190
aI1302
aI1407
aI1500
aI1721
aI1922
aI1895
aI1861
aI2064
aI2138
aI2022
aI2082
aI2152
aI2333
aI2319
aI2201
aI2263
aI2421
aI2462
aI2644
aI2788
aI3083
aI3451
aI3950
aa(lp214
I0
aI0
aI0
aI0
aI0
aI0
aI0
aI0
aI0
aI1
aI1
aI11
aI60
aI215
aI209
aI206
aI267
aI334
aI412
aI568
aI694
aI711
aI796
aI905
aI992
aI1082
aI1080
aI1113
aI1135
aI1265
aI1329
aI1353
aI1258
aI1374
aI1502
aI1663
aI1724
aI1822
aI1963
aI2088
aI2107
aI1963
aI2182
aI2377
aI2588
aI2706
aI2548
aI2526
aI2527
aI2597
aI2616
aI2764
aI2927
aI3069
aI3148
aI3430
aI3401
aI3295
aI3454
aI3817
aa(lp215
I0
aI0
aI0
aI0
aI0
aI1
aI0
aI1
aI0
aI0
aI0
aI2
aI16
aI65
aI162
aI367
aI518
aI976
aI1519
aI2192
aI2799
aI3668
aI4445
aI5345
aI6439
aI6785
aI5999
aI6031
aI6541
aI7353
aI8209
aI9154
aI9541
aI9962
aI10616
aI11666
aI12475
aI13065
aI14029
aI15115
aI16549
aI17532
aI18803
aI19574
aI21641
aI23524
aI25058
aI25840
aI26575
aI27017
aI27480
aI28076
aI29608
aI30991
aI31930
aI32995
aI33395
aI33729
aI33900
aI34233
aa(lp216
I0
aI0
aI0
aI0
aI0
aI0
aI0
aI4
aI56
aI125
aI101
aI37
aI26
aI64
aI105
aI75
aI86
aI141
aI88
aI104
aI106
aI92
aI82
aI74
aI99
aI113
aI154
aI70
aI61
aI57
aI47
aI62
aI53
aI72
aI66
aI69
aI112
aI104
aI99
aI87
aI71
aI93
aI122
aI131
aI86
aI123
aI83
aI81
aI114
aI108
aI176
aI149
aI151
aI126
aI137
aI98
aI148
aI136
aI124
aI183
aa(lp217
I0
aI0
aI0
aI0
aI0
aI0
aI0
aI0
aI2
aI1
aI2
aI12
aI132
aI766
aI1420
aI889
aI648
aI783
aI768
aI647
aI713
aI800
aI955
aI1173
aI1399
aI1310
aI1397
aI1488
aI1585
aI1594
aI1621
aI1628
aI1842
aI2148
aI2380
aI2513
aI2610
aI2823
aI2900
aI2996
aI3103
aI3077
aI3286
aI3679
aI3719
aI3661
aI3487
aI3765
aI3923
aI3977
aI4279
aI4282
aI4361
aI4463
aI4357
aI4451
aI4599
aI4798
aI5061
aI5166
aa(lp218
I0
aI0
aI0
aI0
aI0
aI0
aI0
aI0
aI0
aI1
aI2
aI25
aI192
aI1499
aI3434
aI2498
aI1536
aI1183
aI1112
aI1369
aI1320
aI1598
aI2094
aI2545
aI3231
aI4051
aI4791
aI5480
aI5816
aI6378
aI7155
aI7957
aI8941
aI9791
aI11064
aI11871
aI13144
aI14386
aI14906
aI14970
aI15126
aI16186
aI17133
aI17837
aI18864
aI20129
aI21396
aI22038
aI23386
aI24601
aI26142
aI27056
aI28682
aI29796
aI31743
aI31704
aI31635
aI32934
aI33783
aI34970
aa(lp219
I0
aI0
aI0
aI0
aI0
aI0
aI0
aI0
aI1
aI0
aI1
aI15
aI99
aI358
aI659
aI486
aI434
aI547
aI581
aI627
aI647
aI767
aI853
aI1021
aI1213
aI1311
aI1297
aI1377
aI1467
aI1535
aI1632
aI1672
aI1886
aI2074
aI2171
aI2194
aI2238
aI2393
aI2574
aI2730
aI2787
aI3185
aI3357
aI3694
aI3874
aI3651
aI3646
aI3992
aI3910
aI3990
aI4065
aI4131
aI4246
aI4360
aI4541
aI4741
aI4954
aI4796
aI4935
aI4842
aa(lp220
I0
aI0
aI0
aI0
aI0
aI0
aI2
aI3
aI3
aI6
aI21
aI28
aI143
aI497
aI1351
aI1408
aI1213
aI1348
aI1595
aI1765
aI1961
aI2237
aI2401
aI2818
aI2874
aI2978
aI2970
aI2997
aI3034
aI3234
aI3694
aI3848
aI4109
aI4611
aI5111
aI5483
aI5449
aI5777
aI6098
aI6328
aI6497
aI6829
aI7124
aI7455
aI7699
aI7928
aI8585
aI8827
aI8768
aI9051
aI9218
aI9581
aI10046
aI10625
aI10731
aI11220
aI11495
aI11858
aI12679
aI12862
aa(lp221
I0
aI0
aI0
aI0
aI0
aI0
aI0
aI0
aI0
aI0
aI0
aI0
aI0
aI3
aI4
aI26
aI89
aI135
aI185
aI189
aI180
aI202
aI200
aI181
aI167
aI224
aI292
aI437
aI459
aI403
aI365
aI334
aI346
aI450
aI480
aI560
aI530
aI488
aI552
aI610
aI559
aI575
aI581
aI669
aI646
aI673
aI736
aI738
aI770
aI714
aI723
aI614
aI784
aI852
aI872
aI893
aI1001
aI1021
aI1063
aI1045
aa(lp222
I0
aI0
aI0
aI0
aI0
aI0
aI0
aI0
aI0
aI0
aI0
aI1
aI1
aI21
aI26
aI51
aI34
aI43
aI41
aI40
aI50
aI65
aI54
aI58
aI57
aI64
aI91
aI101
aI94
aI130
aI124
aI116
aI119
aI127
aI133
aI155
aI156
aI152
aI173
aI214
aI176
aI212
aI207
aI220
aI255
aI307
aI316
aI260
aI245
aI293
aI274
aI319
aI293
aI312
aI370
aI418
aI395
aI341
aI336
aI355
aa(lp223
I0
aI0
aI0
aI0
aI0
aI0
aI0
aI0
aI0
aI0
aI1
aI4
aI6
aI41
aI86
aI120
aI260
aI211
aI186
aI206
aI246
aI251
aI289
aI341
aI454
aI478
aI442
aI477
aI523
aI634
aI548
aI573
aI623
aI646
aI702
aI704
aI780
aI882
aI820
aI902
aI900
aI950
aI940
aI1116
aI1156
aI1261
aI1437
aI1276
aI1285
aI1428
aI1498
aI1542
aI1576
aI1711
aI1866
aI1886
aI1888
aI1948
aI2033
aI2030
aa(lp224
I0
aI0
aI0
aI0
aI1
aI12
aI7
aI19
aI76
aI203
aI432
aI844
aI2147
aI5024
aI9263
aI13377
aI16844
aI19546
aI22073
aI24417
aI26772
aI29666
aI34017
aI37570
aI41319
aI45940
aI51447
aI56131
aI60259
aI65600
aI68835
aI72770
aI76858
aI82754
aI87853
aI93973
aI100619
aI107380
aI114164
aI119459
aI125742
aI132371
aI139057
aI145650
aI150992
aI156993
aI164946
aI171615
aI177629
aI185097
aI190837
aI199319
aI207060
aI214113
aI221347
aI227479
aI233801
aI241663
aI250201
aI257253
aa(lp225
I0
aI0
aI0
aI0
aI0
aI0
aI1
aI1
aI2
aI0
aI0
aI2
aI9
aI8
aI76
aI375
aI1759
aI5165
aI9178
aI11629
aI12604
aI14170
aI16200
aI19070
aI20854
aI21346
aI21666
aI22224
aI23103
aI24320
aI25312
aI25541
aI27029
aI28497
aI30952
aI32878
aI34505
aI36914
aI39096
aI41965
aI44042
aI46506
aI49276
aI51152
aI55096
aI58005
aI61159
aI64681
aI66870
aI69674
aI71461
aI75543
aI78127
aI80407
aI84022
aI85725
aI88931
aI92488
aI95091
aI98354
aa(lp226
I0
aI0
aI0
aI0
aI0
aI0
aI1
aI1
aI3
aI0
aI0
aI3
aI6
aI22
aI60
aI335
aI1592
aI4373
aI8954
aI10404
aI9886
aI10591
aI12138
aI15237
aI17980
aI20534
aI23256
aI25270
aI28363
aI31629
aI34184
aI36368
aI39020
aI41698
aI46760
aI51029
aI54878
aI58668
aI64421
aI68264
aI73765
aI76874
aI80976
aI83997
aI86334
aI89935
aI91714
aI95767
aI99040
aI102870
aI105123
aI107918
aI110488
aI112076
aI114729
aI117396
aI120506
aI121936
aI125207
aI127238
aa(lp227
I0
aI0
aI0
aI0
aI0
aI0
aI0
aI0
aI0
aI0
aI0
aI0
aI0
aI3
aI15
aI155
aI1166
aI3722
aI5978
aI6967
aI7462
aI7933
aI8278
aI8650
aI8941
aI8733
aI8714
aI8681
aI8863
aI9367
aI9539
aI9794
aI9842
aI9799
aI10180
aI10629
aI11098
aI11350
aI11696
aI12074
aI12903
aI13242
aI13621
aI14356
aI14955
aI15655
aI16095
aI16983
aI17980
aI18463
aI19337
aI19807
aI20454
aI21809
aI22983
aI23495
aI24761
aI25118
aI26440
aI26792
aa(lp228
I0
aI0
aI0
aI0
aI0
aI0
aI0
aI0
aI0
aI0
aI0
aI0
aI1
aI0
aI12
aI55
aI302
aI742
aI1137
aI1379
aI1682
aI1674
aI1886
aI1916
aI2011
aI2052
aI2134
aI2105
aI2171
aI2127
aI2333
aI2431
aI2582
aI2657
aI2855
aI2927
aI3092
aI3184
aI3187
aI3319
aI3595
aI3654
aI3892
aI4344
aI4374
aI4424
aI4228
aI4558
aI4720
aI5073
aI5098
aI5467
aI5498
aI5517
aI5788
aI5944
aI6187
aI6507
aI6574
aI6817
aa(lp229
I0
aI0
aI0
aI0
aI0
aI0
aI0
aI0
aI0
aI0
aI0
aI0
aI0
aI0
aI6
aI56
aI350
aI886
aI820
aI574
aI520
aI528
aI688
aI792
aI865
aI844
aI1242
aI1421
aI1320
aI1304
aI1199
aI1314
aI1500
aI1667
aI1917
aI2616
aI2772
aI3204
aI2930
aI2783
aI2836
aI2752
aI2767
aI2978
aI2917
aI3115
aI3395
aI3547
aI3533
aI3811
aI4005
aI4146
aI4027
aI4159
aI4404
aI4541
aI4857
aI5100
aI5237
aI5413
aa(lp230
I0
aI0
aI0
aI0
aI0
aI0
aI0
aI0
aI2
aI0
aI0
aI0
aI0
aI1
aI16
aI55
aI231
aI663
aI1204
aI1266
aI1238
aI1296
aI1159
aI1194
aI1474
aI1528
aI1413
aI1570
aI1603
aI1527
aI1605
aI1640
aI1818
aI1839
aI1964
aI2045
aI2295
aI2650
aI2634
aI2535
aI2625
aI2889
aI3155
aI3186
aI3223
aI3275
aI3610
aI3809
aI3960
aI4099
aI4455
aI4600
aI4710
aI4991
aI4892
aI5224
aI5701
aI6231
aI6154
aI6533
aa(lp231
I0
aI0
aI0
aI0
aI0
aI0
aI0
aI0
aI0
aI0
aI0
aI3
aI30
aI127
aI504
aI486
aI467
aI649
aI722
aI804
aI1039
aI1413
aI1677
aI1918
aI1876
aI1862
aI1848
aI1753
aI1659
aI1951
aI2244
aI2438
aI2597
aI2521
aI2451
aI2581
aI2905
aI2960
aI3125
aI3498
aI3445
aI3539
aI3721
aI3917
aI4285
aI4459
aI4730
aI4825
aI4979
aI5470
aI5482
aI5696
aI6120
aI5975
aI6208
aI6351
aI6417
aI6565
aI6726
aI6767
aa(lp232
I0
aI0
aI0
aI0
aI0
aI0
aI0
aI0
aI0
aI0
aI0
aI3
aI19
aI323
aI1636
aI1959
aI1343
aI1751
aI2453
aI3023
aI3778
aI4866
aI6379
aI7662
aI9500
aI10385
aI10811
aI11845
aI12806
aI13860
aI15347
aI17503
aI19270
aI20822
aI23316
aI25986
aI27300
aI28914
aI29611
aI31558
aI33335
aI35377
aI37930
aI40818
aI42364
aI44792
aI46921
aI47864
aI48431
aI49048
aI49501
aI49752
aI51557
aI52808
aI54744
aI56274
aI57704
aI59367
aI59305
aI58317
aa(lp233
I0
aI0
aI0
aI0
aI0
aI0
aI0
aI1
aI5
aI42
aI121
aI75
aI29
aI11
aI22
aI13
aI13
aI12
aI26
aI52
aI138
aI113
aI111
aI79
aI81
aI57
aI60
aI98
aI81
aI133
aI155
aI153
aI149
aI141
aI151
aI201
aI236
aI263
aI287
aI305
aI235
aI256
aI336
aI289
aI282
aI303
aI345
aI507
aI773
aI667
aI501
aI497
aI434
aI317
aI372
aI375
aI347
aI298
aI302
aI330
aa(lp234
I0
aI0
aI0
aI0
aI0
aI0
aI0
aI0
aI0
aI1
aI0
aI14
aI197
aI928
aI727
aI415
aI600
aI891
aI946
aI1041
aI1284
aI1319
aI1638
aI1803
aI2601
aI2154
aI1724
aI1914
aI2303
aI2628
aI3286
aI3202
aI3296
aI4045
aI4383
aI4596
aI4756
aI4824
aI4819
aI4982
aI5252
aI5430
aI5797
aI6009
aI6217
aI5997
aI6397
aI6604
aI6735
aI7033
aI7303
aI7750
aI8010
aI8395
aI8309
aI9095
aI9703
aI9941
aI10273
aI10438
aa(lp235
I0
aI0
aI0
aI0
aI0
aI0
aI0
aI0
aI0
aI1
aI4
aI7
aI131
aI767
aI1251
aI1008
aI1525
aI2421
aI3447
aI4203
aI4168
aI4152
aI4477
aI5086
aI6971
aI8034
aI7674
aI8483
aI9478
aI11718
aI14345
aI15999
aI17362
aI20445
aI22872
aI23894
aI25571
aI27461
aI28535
aI29872
aI32495
aI35216
aI36759
aI37238
aI38808
aI39504
aI40064
aI41401
aI42910
aI44306
aI46422
aI48047
aI49129
aI51127
aI52646
aI53568
aI55108
aI55674
aI57193
aI58898
aa(lp236
I0
aI0
aI0
aI0
aI0
aI0
aI0
aI0
aI0
aI0
aI2
aI17
aI164
aI591
aI455
aI341
aI406
aI747
aI800
aI1122
aI1504
aI1733
aI1787
aI2179
aI2295
aI2113
aI2182
aI2096
aI2464
aI2731
aI3181
aI3491
aI3877
aI3828
aI3860
aI4196
aI4626
aI4904
aI4915
aI5205
aI5217
aI5196
aI5294
aI5673
aI6015
aI6124
aI6489
aI6738
aI7209
aI6799
aI6814
aI7200
aI7407
aI7838
aI8163
aI8123
aI8488
aI8564
aI8885
aI9517
aa(lp237
I0
aI0
aI0
aI0
aI0
aI1
aI1
aI4
aI4
aI7
aI11
aI43
aI251
aI1325
aI2240
aI1320
aI1089
aI1530
aI2102
aI2631
aI3280
aI3928
aI4130
aI4926
aI5993
aI5658
aI5018
aI5136
aI5685
aI6732
aI7817
aI8191
aI8593
aI9111
aI9629
aI10273
aI10962
aI11462
aI12009
aI12051
aI12293
aI12916
aI13433
aI14473
aI15066
aI15340
aI15636
aI16138
aI16501
aI16862
aI17865
aI18773
aI19549
aI20308
aI20821
aI21470
aI22031
aI22344
aI22743
aI23984
aa(lp238
I0
aI0
aI0
aI0
aI0
aI0
aI0
aI0
aI0
aI0
aI0
aI0
aI0
aI0
aI5
aI18
aI43
aI157
aI284
aI331
aI418
aI447
aI436
aI453
aI477
aI450
aI569
aI627
aI710
aI664
aI649
aI680
aI651
aI646
aI629
aI786
aI802
aI768
aI722
aI792
aI735
aI845
aI939
aI910
aI972
aI969
aI1092
aI1052
aI1098
aI1162
aI1203
aI1183
aI1257
aI1314
aI1481
aI1581
aI1682
aI1669
aI1681
aI1682
aa(lp239
I0
aI0
aI0
aI0
aI0
aI0
aI0
aI0
aI0
aI0
aI0
aI0
aI0
aI1
aI7
aI19
aI31
aI81
aI97
aI143
aI212
aI233
aI254
aI177
aI168
aI145
aI163
aI160
aI223
aI225
aI295
aI284
aI293
aI334
aI302
aI346
aI398
aI417
aI433
aI467
aI564
aI485
aI483
aI467
aI547
aI526
aI564
aI509
aI630
aI672
aI784
aI764
aI834
aI814
aI766
aI808
aI782
aI782
aI755
aI775
aa(lp240
I0
aI0
aI0
aI0
aI0
aI0
aI0
aI0
aI0
aI0
aI0
aI0
aI3
aI14
aI34
aI85
aI117
aI219
aI258
aI288
aI343
aI345
aI428
aI467
aI623
aI716
aI944
aI987
aI938
aI951
aI1075
aI1156
aI1307
aI1103
aI1118
aI1161
aI1157
aI1270
aI1387
aI1632
aI1633
aI1796
aI2002
aI2145
aI2122
aI2150
aI2225
aI2424
aI2445
aI2666
aI2737
aI2674
aI2634
aI2796
aI2976
aI3077
aI3188
aI3315
aI3444
aI3432
aa(lp241
I0
aI0
aI0
aI0
aI4
aI19
aI25
aI217
aI1496
aI3516
aI2931
aI2672
aI4856
aI10629
aI17338
aI24326
aI30304
aI35179
aI40089
aI47567
aI54946
aI61116
aI67664
aI75934
aI82785
aI90064
aI100044
aI108879
aI115415
aI121858
aI129824
aI138757
aI148780
aI159840
aI169531
aI178695
aI188157
aI197367
aI208409
aI218910
aI229694
aI244224
aI257851
aI270723
aI280800
aI290923
aI304780
aI315694
aI325824
aI339924
aI351794
aI365734
aI381303
aI393659
aI407203
aI417906
aI431113
aI444338
aI457416
aI470524
aa(lp242
I0
aI0
aI0
aI0
aI0
aI0
aI0
aI0
aI0
aI0
aI0
aI0
aI0
aI0
aI0
aI0
aI0
aI0
aI0
aI0
aI0
aI0
aI0
aI0
aI0
aI0
aI0
aI0
aI0
aI0
aI0
aI0
aI0
aI0
aI0
aI0
aI0
aI0
aI0
aI0
aI0
aI0
aI0
aI0
aI0
aI0
aI0
aI0
aI0
aI0
aI0
aI0
aI0
aI0
aI0
aI0
aI0
aI0
aI0
aI0
aa(lp243
I0
aI0
aI0
aI0
aI0
aI0
aI0
aI0
aI0
aI0
aI0
aI0
aI0
aI0
aI0
aI0
aI0
aI0
aI0
aI0
aI0
aI0
aI0
aI0
aI0
aI0
aI0
aI0
aI0
aI0
aI0
aI0
aI0
aI0
aI0
aI0
aI0
aI0
aI0
aI0
aI0
aI0
aI0
aI0
aI0
aI0
aI0
aI0
aI0
aI0
aI0
aI0
aI0
aI0
aI0
aI0
aI0
aI0
aI0
aI0
aa(lp244
I0
aI0
aI0
aI0
aI0
aI0
aI0
aI0
aI0
aI0
aI0
aI0
aI0
aI0
aI0
aI0
aI0
aI0
aI0
aI0
aI0
aI0
aI0
aI0
aI0
aI0
aI0
aI0
aI0
aI0
aI0
aI0
aI0
aI0
aI0
aI0
aI0
aI0
aI0
aI0
aI0
aI0
aI0
aI0
aI0
aI0
aI0
aI0
aI0
aI0
aI0
aI0
aI0
aI0
aI0
aI0
aI0
aI0
aI0
aI0
aa(lp245
I0
aI0
aI0
aI0
aI0
aI0
aI0
aI0
aI0
aI0
aI0
aI0
aI0
aI0
aI0
aI0
aI0
aI0
aI0
aI0
aI0
aI0
aI0
aI0
aI0
aI0
aI0
aI0
aI0
aI0
aI0
aI0
aI0
aI0
aI0
aI0
aI0
aI0
aI0
aI0
aI0
aI0
aI0
aI0
aI0
aI0
aI0
aI0
aI0
aI0
aI0
aI0
aI0
aI0
aI0
aI0
aI0
aI0
aI0
aI0
aa(lp246
I0
aI0
aI0
aI0
aI0
aI0
aI0
aI0
aI0
aI0
aI0
aI0
aI0
aI0
aI0
aI0
aI0
aI0
aI0
aI0
aI0
aI0
aI0
aI0
aI0
aI0
aI0
aI0
aI0
aI0
aI0
aI0
aI0
aI0
aI0
aI0
aI0
aI0
aI0
aI0
aI0
aI0
aI0
aI0
aI0
aI0
aI0
aI0
aI0
aI0
aI0
aI0
aI0
aI0
aI0
aI0
aI0
aI0
aI0
aI0
aa(lp247
I0
aI0
aI0
aI0
aI0
aI0
aI0
aI0
aI0
aI0
aI0
aI0
aI0
aI0
aI0
aI0
aI0
aI0
aI0
aI0
aI0
aI0
aI0
aI0
aI0
aI0
aI0
aI0
aI0
aI0
aI0
aI0
aI0
aI0
aI0
aI0
aI0
aI0
aI0
aI0
aI0
aI0
aI0
aI0
aI0
aI0
aI0
aI0
aI0
aI0
aI0
aI0
aI0
aI0
aI0
aI0
aI0
aI0
aI0
aI0
aa(lp248
I0
aI0
aI0
aI0
aI0
aI0
aI0
aI0
aI0
aI0
aI0
aI0
aI0
aI0
aI0
aI0
aI0
aI0
aI0
aI0
aI0
aI0
aI0
aI0
aI0
aI0
aI0
aI0
aI0
aI0
aI0
aI0
aI0
aI0
aI0
aI0
aI0
aI0
aI0
aI0
aI0
aI0
aI0
aI0
aI0
aI0
aI0
aI0
aI0
aI0
aI0
aI0
aI0
aI0
aI0
aI0
aI0
aI0
aI0
aI0
aa(lp249
I0
aI0
aI0
aI0
aI0
aI0
aI0
aI0
aI0
aI0
aI0
aI0
aI0
aI0
aI0
aI0
aI0
aI0
aI0
aI0
aI0
aI0
aI0
aI0
aI0
aI0
aI0
aI0
aI0
aI0
aI0
aI0
aI0
aI0
aI0
aI0
aI0
aI0
aI0
aI0
aI0
aI0
aI0
aI0
aI0
aI0
aI0
aI0
aI0
aI0
aI0
aI0
aI0
aI0
aI0
aI0
aI0
aI0
aI0
aI0
aa(lp250
I0
aI0
aI0
aI0
aI0
aI0
aI0
aI0
aI0
aI0
aI0
aI0
aI0
aI0
aI0
aI0
aI0
aI0
aI0
aI0
aI0
aI0
aI0
aI0
aI0
aI0
aI0
aI0
aI0
aI0
aI0
aI0
aI0
aI0
aI0
aI0
aI0
aI0
aI0
aI0
aI0
aI0
aI0
aI0
aI0
aI0
aI0
aI0
aI0
aI0
aI0
aI0
aI0
aI0
aI0
aI0
aI0
aI0
aI0
aI0
aa(lp251
I0
aI0
aI0
aI0
aI0
aI0
aI0
aI0
aI0
aI0
aI0
aI0
aI0
aI0
aI0
aI0
aI0
aI0
aI0
aI0
aI0
aI0
aI0
aI0
aI0
aI0
aI0
aI0
aI0
aI0
aI0
aI0
aI0
aI0
aI0
aI0
aI0
aI0
aI0
aI0
aI0
aI0
aI0
aI0
aI0
aI0
aI0
aI0
aI0
aI0
aI0
aI0
aI0
aI0
aI0
aI0
aI0
aI0
aI0
aI0
aa(lp252
I0
aI0
aI0
aI0
aI0
aI0
aI0
aI0
aI0
aI0
aI0
aI0
aI0
aI0
aI0
aI0
aI0
aI0
aI0
aI0
aI0
aI0
aI0
aI0
aI0
aI0
aI0
aI0
aI0
aI0
aI0
aI0
aI0
aI0
aI0
aI0
aI0
aI0
aI0
aI0
aI0
aI0
aI0
aI0
aI0
aI0
aI0
aI0
aI0
aI0
aI0
aI0
aI0
aI0
aI0
aI0
aI0
aI0
aI0
aI0
aa(lp253
I0
aI0
aI0
aI0
aI0
aI0
aI0
aI0
aI0
aI0
aI0
aI0
aI0
aI0
aI0
aI0
aI0
aI0
aI0
aI0
aI0
aI0
aI0
aI0
aI0
aI0
aI0
aI0
aI0
aI0
aI0
aI0
aI0
aI0
aI0
aI0
aI0
aI0
aI0
aI0
aI0
aI0
aI0
aI0
aI0
aI0
aI0
aI0
aI0
aI0
aI0
aI0
aI0
aI0
aI0
aI0
aI0
aI0
aI0
aI0
aa(lp254
I0
aI0
aI0
aI0
aI0
aI0
aI0
aI0
aI0
aI0
aI0
aI0
aI0
aI0
aI0
aI0
aI0
aI0
aI0
aI0
aI0
aI0
aI0
aI0
aI0
aI0
aI0
aI0
aI0
aI0
aI0
aI0
aI0
aI0
aI0
aI0
aI0
aI0
aI0
aI0
aI0
aI0
aI0
aI0
aI0
aI0
aI0
aI0
aI0
aI0
aI0
aI0
aI0
aI0
aI0
aI0
aI0
aI0
aI0
aI0
aa(lp255
I0
aI0
aI0
aI0
aI0
aI0
aI0
aI0
aI0
aI0
aI0
aI0
aI0
aI0
aI0
aI0
aI0
aI0
aI0
aI0
aI0
aI0
aI0
aI0
aI0
aI0
aI0
aI0
aI0
aI0
aI0
aI0
aI0
aI0
aI0
aI0
aI0
aI0
aI0
aI0
aI0
aI0
aI0
aI0
aI0
aI0
aI0
aI0
aI0
aI0
aI0
aI0
aI0
aI0
aI0
aI0
aI0
aI0
aI0
aI0
aa(lp256
I0
aI0
aI0
aI0
aI0
aI0
aI0
aI0
aI0
aI0
aI0
aI0
aI0
aI0
aI0
aI0
aI0
aI0
aI0
aI0
aI0
aI0
aI0
aI0
aI0
aI0
aI0
aI0
aI0
aI0
aI0
aI0
aI0
aI0
aI0
aI0
aI0
aI0
aI0
aI0
aI0
aI0
aI0
aI0
aI0
aI0
aI0
aI0
aI0
aI0
aI0
aI0
aI0
aI0
aI0
aI0
aI0
aI0
aI0
aI0
aa(lp257
I0
aI0
aI0
aI0
aI0
aI0
aI0
aI0
aI0
aI0
aI0
aI0
aI0
aI0
aI0
aI0
aI0
aI0
aI0
aI0
aI0
aI0
aI0
aI0
aI0
aI0
aI0
aI0
aI0
aI0
aI0
aI0
aI0
aI0
aI0
aI0
aI0
aI0
aI0
aI0
aI0
aI0
aI0
aI0
aI0
aI0
aI0
aI0
aI0
aI0
aI0
aI0
aI0
aI0
aI0
aI0
aI0
aI0
aI0
aI0
aa(lp258
I0
aI0
aI0
aI0
aI0
aI0
aI0
aI0
aI0
aI0
aI0
aI0
aI0
aI0
aI0
aI0
aI0
aI0
aI0
aI0
aI0
aI0
aI0
aI0
aI0
aI0
aI0
aI0
aI0
aI0
aI0
aI0
aI0
aI0
aI0
aI0
aI0
aI0
aI0
aI0
aI0
aI0
aI0
aI0
aI0
aI0
aI0
aI0
aI0
aI0
aI0
aI0
aI0
aI0
aI0
aI0
aI0
aI0
aI0
aI0
aa(lp259
I0
aI0
aI0
aI0
aI0
aI0
aI0
aI0
aI0
aI0
aI0
aI0
aI1
aI0
aI2
aI2
aI3
aI9
aI23
aI26
aI29
aI46
aI53
aI52
aI83
aI115
aI138
aI102
aI163
aI155
aI175
aI158
aI176
aI185
aI194
aI234
aI225
aI261
aI235
aI270
aI291
aI286
aI293
aI332
aI333
aI367
aI354
aI396
aI437
aI430
aI476
aI479
aI497
aI545
aI560
aI605
aI547
aI559
aI622
aI697
aa(lp260
I0
aI0
aI0
aI0
aI0
aI0
aI1
aI0
aI0
aI0
aI0
aI1
aI0
aI0
aI0
aI1
aI9
aI11
aI26
aI24
aI34
aI32
aI48
aI55
aI61
aI110
aI134
aI136
aI168
aI199
aI205
aI206
aI232
aI250
aI248
aI293
aI309
aI315
aI317
aI400
aI411
aI450
aI486
aI472
aI504
aI601
aI671
aI673
aI711
aI670
aI705
aI783
aI874
aI839
aI886
aI870
aI867
aI894
aI930
aI970
aa(lp261
I0
aI0
aI0
aI0
aI0
aI0
aI0
aI0
aI0
aI0
aI0
aI0
aI0
aI0
aI0
aI1
aI6
aI10
aI21
aI16
aI33
aI51
aI40
aI47
aI53
aI51
aI64
aI68
aI76
aI98
aI61
aI80
aI91
aI87
aI91
aI101
aI96
aI101
aI102
aI93
aI98
aI136
aI111
aI111
aI123
aI139
aI145
aI161
aI156
aI144
aI176
aI176
aI199
aI213
aI216
aI187
aI191
aI207
aI240
aI237
aa(lp262
I0
aI0
aI0
aI0
aI0
aI0
aI0
aI0
aI0
aI0
aI0
aI0
aI0
aI0
aI0
aI0
aI2
aI3
aI6
aI6
aI7
aI5
aI13
aI9
aI14
aI19
aI15
aI13
aI9
aI22
aI23
aI19
aI24
aI22
aI28
aI30
aI25
aI21
aI26
aI32
aI31
aI44
aI24
aI43
aI36
aI31
aI28
aI42
aI33
aI58
aI48
aI45
aI50
aI42
aI40
aI56
aI45
aI62
aI65
aI48
aa(lp263
I0
aI0
aI0
aI0
aI0
aI0
aI0
aI0
aI0
aI0
aI0
aI0
aI0
aI0
aI0
aI0
aI4
aI5
aI2
aI4
aI3
aI5
aI3
aI1
aI6
aI6
aI5
aI14
aI5
aI15
aI7
aI9
aI7
aI6
aI10
aI16
aI9
aI18
aI9
aI17
aI14
aI12
aI11
aI17
aI14
aI28
aI27
aI35
aI34
aI41
aI41
aI37
aI35
aI25
aI34
aI31
aI31
aI38
aI34
aI16
aa(lp264
I0
aI0
aI0
aI0
aI0
aI0
aI0
aI0
aI0
aI0
aI0
aI0
aI0
aI0
aI0
aI0
aI2
aI1
aI0
aI0
aI3
aI2
aI1
aI6
aI8
aI3
aI4
aI6
aI13
aI8
aI19
aI11
aI10
aI10
aI14
aI4
aI20
aI16
aI20
aI23
aI26
aI28
aI18
aI23
aI22
aI19
aI20
aI23
aI27
aI24
aI18
aI24
aI14
aI30
aI34
aI27
aI38
aI42
aI43
aI43
aa(lp265
I0
aI0
aI0
aI0
aI0
aI0
aI0
aI0
aI0
aI0
aI0
aI0
aI0
aI1
aI0
aI1
aI0
aI4
aI2
aI2
aI2
aI1
aI2
aI8
aI8
aI9
aI6
aI12
aI12
aI14
aI8
aI12
aI14
aI9
aI20
aI26
aI15
aI21
aI19
aI23
aI21
aI23
aI39
aI31
aI33
aI21
aI23
aI36
aI20
aI32
aI34
aI27
aI29
aI40
aI37
aI44
aI46
aI48
aI44
aI53
aa(lp266
I0
aI0
aI0
aI0
aI0
aI0
aI0
aI0
aI0
aI0
aI0
aI0
aI0
aI0
aI4
aI7
aI2
aI5
aI7
aI10
aI13
aI12
aI28
aI32
aI41
aI52
aI64
aI63
aI80
aI66
aI93
aI71
aI107
aI107
aI108
aI140
aI161
aI171
aI172
aI192
aI196
aI221
aI224
aI261
aI255
aI263
aI283
aI342
aI312
aI376
aI376
aI347
aI368
aI405
aI398
aI466
aI395
aI473
aI435
aI442
aa(lp267
I0
aI0
aI0
aI0
aI0
aI0
aI0
aI0
aI0
aI1
aI2
aI0
aI0
aI2
aI0
aI0
aI1
aI0
aI1
aI0
aI1
aI3
aI1
aI5
aI5
aI3
aI1
aI2
aI0
aI0
aI0
aI3
aI3
aI1
aI1
aI2
aI1
aI1
aI4
aI0
aI0
aI2
aI6
aI5
aI6
aI1
aI2
aI3
aI2
aI2
aI2
aI1
aI1
aI1
aI2
aI2
aI5
aI4
aI5
aI1
aa(lp268
I0
aI0
aI0
aI0
aI0
aI0
aI0
aI0
aI0
aI0
aI0
aI0
aI3
aI2
aI2
aI7
aI5
aI4
aI6
aI6
aI5
aI5
aI12
aI9
aI6
aI12
aI16
aI20
aI13
aI11
aI16
aI22
aI14
aI19
aI18
aI19
aI23
aI15
aI24
aI29
aI32
aI33
aI44
aI43
aI34
aI56
aI58
aI41
aI57
aI66
aI65
aI66
aI62
aI57
aI67
aI74
aI67
aI73
aI62
aI54
aa(lp269
I0
aI0
aI0
aI0
aI0
aI0
aI0
aI0
aI0
aI0
aI1
aI0
aI1
aI4
aI3
aI6
aI3
aI6
aI12
aI12
aI21
aI20
aI36
aI33
aI53
aI58
aI39
aI50
aI61
aI57
aI68
aI79
aI88
aI90
aI115
aI133
aI147
aI148
aI178
aI185
aI172
aI193
aI214
aI191
aI236
aI265
aI298
aI304
aI323
aI353
aI331
aI317
aI375
aI366
aI346
aI414
aI396
aI415
aI421
aI450
aa(lp270
I0
aI0
aI0
aI0
aI0
aI0
aI0
aI0
aI0
aI0
aI0
aI0
aI0
aI2
aI0
aI1
aI2
aI2
aI3
aI17
aI6
aI8
aI15
aI11
aI15
aI16
aI17
aI27
aI9
aI16
aI22
aI17
aI23
aI22
aI16
aI30
aI30
aI28
aI26
aI28
aI27
aI45
aI47
aI38
aI24
aI35
aI40
aI46
aI58
aI42
aI49
aI56
aI64
aI53
aI50
aI44
aI49
aI40
aI69
aI61
aa(lp271
I0
aI0
aI0
aI0
aI0
aI0
aI0
aI0
aI0
aI0
aI0
aI0
aI1
aI4
aI7
aI7
aI7
aI17
aI11
aI10
aI21
aI29
aI28
aI41
aI52
aI43
aI34
aI44
aI33
aI66
aI48
aI52
aI55
aI53
aI35
aI54
aI67
aI72
aI84
aI103
aI90
aI81
aI102
aI88
aI101
aI98
aI115
aI113
aI106
aI106
aI108
aI119
aI113
aI122
aI130
aI122
aI142
aI147
aI136
aI144
aa(lp272
I0
aI0
aI0
aI0
aI0
aI0
aI0
aI0
aI0
aI0
aI0
aI0
aI0
aI0
aI0
aI0
aI0
aI0
aI0
aI3
aI0
aI3
aI2
aI6
aI3
aI3
aI17
aI7
aI12
aI9
aI5
aI10
aI12
aI7
aI10
aI6
aI5
aI9
aI9
aI7
aI9
aI12
aI5
aI12
aI8
aI9
aI9
aI9
aI9
aI10
aI14
aI13
aI18
aI16
aI20
aI26
aI14
aI13
aI15
aI10
aa(lp273
I0
aI0
aI0
aI0
aI0
aI0
aI0
aI0
aI0
aI0
aI0
aI0
aI0
aI0
aI1
aI0
aI1
aI0
aI0
aI0
aI0
aI0
aI0
aI1
aI4
aI1
aI0
aI1
aI0
aI1
aI5
aI1
aI0
aI2
aI2
aI5
aI4
aI2
aI3
aI2
aI4
aI2
aI2
aI3
aI1
aI11
aI3
aI3
aI5
aI3
aI6
aI7
aI7
aI6
aI8
aI1
aI7
aI4
aI7
aI3
aa(lp274
I0
aI0
aI0
aI0
aI0
aI0
aI0
aI0
aI0
aI0
aI0
aI0
aI0
aI0
aI0
aI1
aI4
aI1
aI1
aI1
aI5
aI2
aI3
aI5
aI7
aI4
aI10
aI10
aI8
aI9
aI5
aI10
aI11
aI10
aI13
aI10
aI15
aI12
aI13
aI14
aI15
aI13
aI9
aI11
aI15
aI13
aI32
aI19
aI18
aI20
aI26
aI24
aI19
aI12
aI32
aI16
aI24
aI27
aI21
aI28
aa(lp275
I0
aI0
aI0
aI0
aI0
aI0
aI0
aI0
aI0
aI3
aI6
aI6
aI20
aI43
aI56
aI74
aI116
aI102
aI140
aI212
aI251
aI315
aI357
aI452
aI453
aI523
aI575
aI611
aI649
aI696
aI788
aI860
aI886
aI971
aI1122
aI1105
aI1223
aI1246
aI1387
aI1391
aI1484
aI1612
aI1639
aI1804
aI1847
aI1927
aI2033
aI2095
aI2143
aI2259
aI2474
aI2407
aI2485
aI2665
aI2679
aI2865
aI2961
aI2994
aI3145
aI3321
aa(lp276
I0
aI0
aI0
aI0
aI0
aI0
aI1
aI2
aI0
aI3
aI4
aI8
aI12
aI86
aI262
aI874
aI2480
aI4422
aI5592
aI6118
aI6267
aI6928
aI7835
aI9194
aI10414
aI11319
aI11996
aI12749
aI13662
aI14771
aI15449
aI16838
aI18247
aI19071
aI20992
aI22993
aI24562
aI25602
aI27612
aI29042
aI30646
aI32207
aI33529
aI34801
aI36828
aI38536
aI40491
aI42111
aI43939
aI45318
aI47276
aI48648
aI51051
aI52949
aI56057
aI58653
aI60762
aI63155
aI65027
aI67312
aa(lp277
I0
aI0
aI0
aI0
aI0
aI0
aI1
aI0
aI0
aI2
aI2
aI5
aI26
aI86
aI325
aI1322
aI3626
aI6917
aI9537
aI9398
aI8332
aI8412
aI9216
aI10711
aI12098
aI13305
aI14538
aI16686
aI18118
aI19428
aI21036
aI22507
aI24994
aI26542
aI28621
aI31581
aI34219
aI37350
aI40098
aI43171
aI46861
aI49974
aI52308
aI54266
aI56247
aI59653
aI62036
aI64726
aI65944
aI68371
aI72011
aI74288
aI77016
aI79026
aI82365
aI85136
aI86602
aI88513
aI91170
aI92896
aa(lp278
I0
aI0
aI0
aI0
aI0
aI0
aI0
aI0
aI0
aI0
aI0
aI1
aI2
aI20
aI71
aI304
aI954
aI1809
aI2153
aI2536
aI2720
aI3059
aI3695
aI4735
aI5115
aI5337
aI5759
aI6268
aI7218
aI7738
aI7873
aI7710
aI8304
aI8416
aI8716
aI8640
aI9330
aI9350
aI9721
aI10096
aI10402
aI10745
aI11192
aI11559
aI11810
aI12347
aI12627
aI13078
aI13910
aI14329
aI15046
aI15611
aI16298
aI16856
aI17800
aI18409
aI18717
aI19643
aI20405
aI21017
aa(lp279
I0
aI0
aI0
aI0
aI0
aI0
aI0
aI0
aI0
aI0
aI0
aI0
aI1
aI21
aI86
aI289
aI765
aI1306
aI1448
aI1286
aI1302
aI1367
aI1515
aI1712
aI1832
aI1884
aI2159
aI2364
aI2387
aI2318
aI2298
aI2257
aI2252
aI2332
aI2451
aI2488
aI2609
aI2554
aI2677
aI2788
aI2759
aI2894
aI3076
aI3171
aI3117
aI3197
aI3367
aI3544
aI3825
aI3803
aI3941
aI4068
aI4041
aI4298
aI4492
aI4499
aI4476
aI4769
aI4861
aI5065
aa(lp280
I0
aI0
aI0
aI0
aI0
aI0
aI0
aI0
aI1
aI0
aI0
aI12
aI21
aI21
aI38
aI110
aI301
aI396
aI382
aI479
aI576
aI566
aI598
aI624
aI688
aI901
aI955
aI1071
aI1106
aI1338
aI1269
aI1266
aI1308
aI1417
aI1409
aI1462
aI1629
aI1742
aI1709
aI1761
aI1839
aI1851
aI1936
aI2020
aI2123
aI2297
aI2484
aI2481
aI2491
aI2560
aI2636
aI2789
aI2873
aI2894
aI2898
aI2957
aI2971
aI3127
aI3149
aI3141
aa(lp281
I0
aI0
aI0
aI0
aI0
aI0
aI0
aI0
aI0
aI0
aI1
aI5
aI11
aI44
aI136
aI476
aI1093
aI2454
aI3056
aI2207
aI1735
aI1398
aI1500
aI1601
aI1664
aI1740
aI1956
aI1986
aI1965
aI1896
aI1833
aI1789
aI1774
aI1945
aI1908
aI1954
aI1995
aI2063
aI2199
aI2278
aI2173
aI2375
aI2458
aI2397
aI2515
aI2420
aI2395
aI2434
aI2513
aI2644
aI2759
aI2744
aI2901
aI3260
aI3590
aI3879
aI4403
aI4813
aI5586
aI6136
aa(lp282
I0
aI0
aI0
aI0
aI0
aI1
aI0
aI0
aI1
aI0
aI13
aI68
aI404
aI1951
aI3014
aI1946
aI1753
aI2267
aI2116
aI1679
aI1509
aI1658
aI1879
aI2555
aI3177
aI2700
aI2239
aI2133
aI2155
aI2165
aI2162
aI2276
aI2380
aI2446
aI2428
aI2591
aI2659
aI2688
aI2898
aI2879
aI2995
aI2870
aI2979
aI2965
aI2990
aI3125
aI3127
aI3291
aI3367
aI3310
aI3322
aI3568
aI3665
aI3625
aI3889
aI4120
aI4184
aI4139
aI4521
aI5120
aa(lp283
I0
aI0
aI0
aI0
aI0
aI0
aI0
aI0
aI2
aI1
aI8
aI50
aI356
aI1980
aI3855
aI2633
aI2114
aI2200
aI2340
aI2719
aI3066
aI3510
aI4729
aI6625
aI8313
aI7691
aI7513
aI7626
aI7834
aI8708
aI9702
aI10514
aI11346
aI12713
aI14300
aI15805
aI17002
aI18641
aI19810
aI20915
aI21654
aI22325
aI23753
aI25046
aI26817
aI28412
aI29535
aI30376
aI31583
aI32944
aI34391
aI35487
aI36670
aI38282
aI39091
aI40206
aI41113
aI42187
aI42986
aI43437
aa(lp284
I0
aI0
aI0
aI0
aI0
aI0
aI0
aI3
aI21
aI123
aI333
aI279
aI200
aI128
aI68
aI45
aI49
aI59
aI107
aI158
aI287
aI215
aI160
aI141
aI129
aI121
aI107
aI77
aI91
aI101
aI107
aI147
aI157
aI198
aI212
aI244
aI188
aI162
aI160
aI151
aI142
aI143
aI131
aI125
aI123
aI181
aI170
aI138
aI161
aI183
aI181
aI143
aI140
aI153
aI134
aI128
aI104
aI129
aI145
aI117
aa(lp285
I0
aI0
aI0
aI0
aI0
aI0
aI1
aI0
aI3
aI2
aI14
aI82
aI189
aI261
aI341
aI567
aI588
aI588
aI602
aI779
aI824
aI1092
aI1305
aI1414
aI1742
aI1932
aI2008
aI2113
aI2110
aI2405
aI2425
aI2497
aI2670
aI2722
aI2953
aI2943
aI3213
aI3172
aI3358
aI3344
aI3338
aI3627
aI3888
aI3989
aI4247
aI4627
aI4721
aI4745
aI4743
aI4966
aI5068
aI5214
aI5344
aI5477
aI5566
aI5803
aI6030
aI5988
aI6137
aI6246
aa(lp286
I0
aI0
aI0
aI0
aI0
aI0
aI0
aI0
aI4
aI1
aI7
aI31
aI111
aI298
aI490
aI829
aI1158
aI1626
aI1933
aI1995
aI2452
aI3021
aI3794
aI5120
aI6835
aI6562
aI6450
aI6800
aI7323
aI8271
aI9456
aI9816
aI11030
aI11706
aI13320
aI14708
aI15206
aI15817
aI17062
aI18397
aI19926
aI21147
aI22822
aI23750
aI24617
aI26049
aI27572
aI29320
aI30634
aI31566
aI32241
aI33719
aI34934
aI36234
aI37631
aI38416
aI39858
aI40843
aI41659
aI43151
aa(lp287
I0
aI0
aI0
aI0
aI0
aI0
aI0
aI0
aI3
aI8
aI16
aI189
aI1066
aI2060
aI1102
aI902
aI1135
aI1315
aI1174
aI1206
aI1237
aI1525
aI1801
aI2196
aI2015
aI1810
aI1878
aI1848
aI1957
aI2032
aI2327
aI2515
aI2660
aI3005
aI3178
aI3201
aI3309
aI3419
aI3771
aI3858
aI3998
aI4014
aI4031
aI4264
aI4453
aI4785
aI4647
aI4987
aI5190
aI5173
aI5407
aI5630
aI5450
aI5735
aI5803
aI6168
aI6455
aI6445
aI6829
aI6841
aa(lp288
I0
aI0
aI0
aI0
aI0
aI3
aI11
aI5
aI12
aI26
aI49
aI278
aI1226
aI3682
aI2987
aI2165
aI1976
aI2116
aI2318
aI2671
aI3105
aI3779
aI4889
aI5879
aI5734
aI4968
aI4776
aI4809
aI5357
aI5755
aI6245
aI6692
aI7182
aI7856
aI8306
aI8871
aI9381
aI9700
aI9917
aI10070
aI10473
aI10884
aI11154
aI11837
aI11981
aI12525
aI12940
aI12921
aI13364
aI14132
aI14236
aI14610
aI15162
aI15872
aI16078
aI16335
aI17164
aI17622
aI18063
aI18529
aa(lp289
I0
aI0
aI0
aI0
aI0
aI0
aI0
aI0
aI0
aI0
aI0
aI1
aI0
aI0
aI9
aI18
aI24
aI40
aI61
aI102
aI118
aI126
aI191
aI190
aI216
aI260
aI272
aI291
aI291
aI298
aI294
aI335
aI354
aI382
aI413
aI428
aI508
aI562
aI639
aI646
aI739
aI697
aI674
aI666
aI694
aI809
aI876
aI889
aI959
aI1015
aI910
aI913
aI964
aI1044
aI1019
aI920
aI1029
aI1148
aI1205
aI1214
aa(lp290
I0
aI0
aI0
aI0
aI0
aI0
aI0
aI0
aI0
aI0
aI1
aI1
aI2
aI6
aI13
aI23
aI62
aI67
aI78
aI109
aI84
aI90
aI98
aI81
aI93
aI113
aI95
aI149
aI114
aI156
aI162
aI126
aI140
aI181
aI171
aI181
aI219
aI242
aI253
aI208
aI251
aI278
aI282
aI355
aI372
aI335
aI410
aI361
aI338
aI345
aI329
aI357
aI420
aI472
aI479
aI448
aI443
aI550
aI546
aI541
aa(lp291
I0
aI0
aI0
aI0
aI0
aI0
aI0
aI0
aI0
aI0
aI1
aI3
aI14
aI46
aI137
aI224
aI312
aI390
aI333
aI321
aI360
aI567
aI652
aI683
aI732
aI774
aI783
aI792
aI743
aI817
aI823
aI947
aI1009
aI1044
aI1138
aI1209
aI1260
aI1291
aI1453
aI1350
aI1470
aI1517
aI1718
aI1557
aI1679
aI1778
aI1784
aI1965
aI1962
aI2092
aI2059
aI2089
aI2307
aI2326
aI2283
aI2301
aI2333
aI2446
aI2392
aI2645
aa(lp292
I0
aI0
aI0
aI0
aI62
aI89
aI425
aI2184
aI8153
aI9462
aI6436
aI6384
aI9954
aI14726
aI19240
aI23837
aI26498
aI28720
aI31732
aI34195
aI36766
aI41419
aI46300
aI50758
aI55529
aI62590
aI70777
aI75715
aI79368
aI83029
aI88551
aI95604
aI101942
aI110151
aI117019
aI124919
aI132747
aI140424
aI146748
aI153479
aI160916
aI168098
aI175353
aI184751
aI192565
aI200379
aI209590
aI218176
aI225781
aI236219
aI244473
aI253835
aI262418
aI271228
aI282234
aI290951
aI301308
aI312439
aI322301
aI332305
aa(lp293
I0
aI0
aI0
aI0
aI0
aI0
aI1
aI0
aI1
aI0
aI2
aI4
aI14
aI52
aI230
aI965
aI2532
aI4213
aI5460
aI6093
aI6477
aI7193
aI7705
aI8400
aI9288
aI9859
aI10133
aI10860
aI11779
aI13097
aI14526
aI15364
aI16352
aI17606
aI18955
aI20959
aI22760
aI25022
aI26705
aI28648
aI29945
aI31358
aI32929
aI34021
aI35608
aI36750
aI37542
aI38997
aI40255
aI41637
aI43169
aI45646
aI47856
aI49824
aI52128
aI54343
aI57035
aI58877
aI60627
aI62747
aa(lp294
I0
aI0
aI0
aI1
aI0
aI0
aI0
aI3
aI0
aI0
aI11
aI10
aI18
aI72
aI354
aI1565
aI4129
aI7059
aI9069
aI8628
aI7911
aI7063
aI7375
aI8573
aI9503
aI9916
aI10136
aI11064
aI13514
aI16164
aI18553
aI19875
aI21329
aI23304
aI25748
aI28312
aI30625
aI32459
aI35201
aI38160
aI41455
aI45000
aI46022
aI48358
aI49561
aI52599
aI54707
aI56982
aI60128
aI63127
aI66892
aI69599
aI72161
aI74417
aI76890
aI78916
aI80671
aI82538
aI85696
aI87752
aa(lp295
I0
aI0
aI0
aI0
aI0
aI0
aI0
aI0
aI0
aI0
aI2
aI3
aI3
aI16
aI102
aI337
aI1095
aI2118
aI2829
aI3284
aI3569
aI4101
aI4552
aI5149
aI5411
aI5510
aI5725
aI6400
aI6974
aI7589
aI7686
aI7830
aI8142
aI8468
aI8827
aI9387
aI9726
aI9960
aI10572
aI11176
aI11513
aI11467
aI11790
aI12098
aI12693
aI12927
aI13294
aI14001
aI14932
aI15139
aI15324
aI15517
aI16057
aI16532
aI17342
aI17420
aI18374
aI18510
aI18916
aI19468
aa(lp296
I0
aI0
aI0
aI0
aI0
aI0
aI0
aI0
aI0
aI0
aI2
aI2
aI4
aI15
aI89
aI234
aI585
aI843
aI1046
aI1022
aI1052
aI1203
aI1191
aI1318
aI1405
aI1484
aI1551
aI1781
aI1844
aI1831
aI1917
aI1914
aI2023
aI2209
aI2237
aI2455
aI2737
aI2843
aI2813
aI3000
aI3127
aI3191
aI3291
aI3184
aI3177
aI3317
aI3391
aI3552
aI3609
aI3706
aI3632
aI3880
aI4066
aI4099
aI4339
aI4261
aI4314
aI4328
aI4427
aI4569
aa(lp297
I0
aI0
aI0
aI0
aI0
aI0
aI0
aI0
aI0
aI0
aI0
aI0
aI3
aI5
aI11
aI70
aI145
aI258
aI298
aI348
aI348
aI443
aI730
aI920
aI702
aI580
aI645
aI764
aI907
aI918
aI1013
aI876
aI964
aI1054
aI1229
aI1262
aI1489
aI1645
aI1729
aI1768
aI1822
aI1913
aI1964
aI1796
aI1981
aI2090
aI2139
aI2085
aI2198
aI2279
aI2452
aI2372
aI2465
aI2699
aI2606
aI2792
aI2932
aI2913
aI2889
aI2814
aa(lp298
I0
aI0
aI0
aI0
aI0
aI0
aI0
aI0
aI0
aI0
aI0
aI1
aI3
aI22
aI79
aI226
aI485
aI621
aI786
aI1084
aI1053
aI1022
aI840
aI720
aI681
aI707
aI880
aI1019
aI987
aI995
aI1033
aI1044
aI1162
aI1274
aI1389
aI1637
aI1602
aI1669
aI2011
aI1950
aI1901
aI2045
aI1995
aI2017
aI2099
aI2127
aI2216
aI2265
aI2219
aI2352
aI2492
aI2664
aI2767
aI2934
aI3086
aI3322
aI3661
aI4203
aI4400
aI4694
aa(lp299
I0
aI0
aI0
aI0
aI0
aI0
aI0
aI0
aI1
aI1
aI4
aI34
aI109
aI552
aI939
aI756
aI668
aI687
aI689
aI577
aI550
aI555
aI663
aI851
aI998
aI1081
aI999
aI1053
aI1155
aI1160
aI1267
aI1446
aI1691
aI1936
aI2075
aI2324
aI2150
aI2140
aI2286
aI2222
aI2401
aI2604
aI2601
aI2610
aI2555
aI2754
aI2705
aI2676
aI3006
aI3077
aI3361
aI3326
aI3430
aI3516
aI3581
aI3682
aI3794
aI3894
aI4043
aI4495
aa(lp300
I0
aI0
aI0
aI0
aI0
aI0
aI0
aI1
aI1
aI0
aI6
aI26
aI247
aI1828
aI3952
aI2730
aI1978
aI1796
aI1631
aI1682
aI2115
aI2964
aI4199
aI4819
aI5087
aI5240
aI5666
aI6141
aI6572
aI6843
aI7964
aI9282
aI10421
aI12063
aI13475
aI14013
aI15000
aI15305
aI16570
aI17745
aI18564
aI19989
aI21038
aI22417
aI24094
aI26133
aI27617
aI28149
aI29206
aI30262
aI31606
aI32144
aI33970
aI35490
aI36810
aI37852
aI39068
aI40394
aI41001
aI41061
aa(lp301
I0
aI0
aI0
aI0
aI0
aI0
aI0
aI1
aI3
aI51
aI190
aI152
aI90
aI67
aI126
aI74
aI28
aI29
aI32
aI28
aI61
aI76
aI79
aI77
aI78
aI65
aI78
aI66
aI52
aI71
aI123
aI125
aI71
aI87
aI128
aI111
aI85
aI71
aI67
aI91
aI85
aI116
aI113
aI114
aI132
aI111
aI124
aI106
aI82
aI98
aI121
aI145
aI151
aI172
aI166
aI163
aI151
aI156
aI254
aI242
aa(lp302
I0
aI0
aI0
aI0
aI0
aI0
aI0
aI0
aI0
aI0
aI2
aI10
aI41
aI80
aI150
aI276
aI541
aI841
aI828
aI795
aI808
aI815
aI974
aI1236
aI1466
aI1665
aI1557
aI1541
aI1676
aI1740
aI1682
aI1826
aI2055
aI2586
aI2772
aI2630
aI2862
aI2920
aI3102
aI3403
aI3432
aI3547
aI3706
aI3644
aI3729
aI3906
aI3979
aI4164
aI4261
aI4546
aI4536
aI4671
aI5060
aI5126
aI5218
aI5231
aI5242
aI5587
aI5545
aI5679
aa(lp303
I0
aI0
aI0
aI0
aI0
aI0
aI0
aI0
aI0
aI2
aI6
aI21
aI44
aI147
aI344
aI817
aI1516
aI2467
aI2784
aI2663
aI2675
aI2967
aI3760
aI5770
aI7150
aI5853
aI5250
aI5161
aI5245
aI5822
aI6726
aI7423
aI8287
aI9055
aI10687
aI12356
aI14141
aI14726
aI15638
aI16919
aI18075
aI19608
aI20187
aI21196
aI22127
aI23334
aI24701
aI26114
aI27569
aI28552
aI30138
aI31031
aI32488
aI33502
aI34818
aI36371
aI37935
aI38390
aI39902
aI40827
aa(lp304
I0
aI0
aI0
aI0
aI0
aI0
aI1
aI0
aI0
aI7
aI9
aI47
aI376
aI828
aI450
aI365
aI556
aI835
aI841
aI829
aI772
aI892
aI1034
aI1122
aI1203
aI1306
aI1321
aI1545
aI1726
aI1907
aI1974
aI2079
aI2396
aI2557
aI2804
aI3104
aI3091
aI3247
aI3350
aI3276
aI3496
aI3725
aI3764
aI3789
aI4068
aI4044
aI4190
aI4193
aI4312
aI4508
aI4916
aI5092
aI5134
aI5386
aI5618
aI5851
aI6196
aI6341
aI6587
aI6510
aa(lp305
I0
aI0
aI0
aI0
aI0
aI3
aI3
aI3
aI6
aI7
aI19
aI92
aI552
aI2214
aI2026
aI1317
aI1078
aI1108
aI1222
aI1271
aI1506
aI1763
aI2053
aI2470
aI2738
aI2964
aI3005
aI2918
aI3005
aI3382
aI3673
aI4194
aI4690
aI5255
aI5688
aI6298
aI6817
aI6949
aI7087
aI7287
aI7262
aI7483
aI7842
aI8247
aI8822
aI8888
aI9216
aI9543
aI9825
aI10202
aI10442
aI10732
aI11235
aI11781
aI12579
aI12701
aI13148
aI13616
aI14020
aI14300
aa(lp306
I0
aI0
aI0
aI0
aI0
aI0
aI0
aI0
aI0
aI0
aI0
aI0
aI1
aI7
aI6
aI25
aI59
aI66
aI90
aI127
aI166
aI205
aI247
aI308
aI310
aI320
aI325
aI291
aI345
aI341
aI306
aI310
aI319
aI355
aI428
aI480
aI565
aI554
aI704
aI804
aI849
aI769
aI775
aI739
aI757
aI718
aI806
aI701
aI729
aI766
aI787
aI936
aI871
aI1001
aI1036
aI1035
aI1024
aI1086
aI1123
aI1084
aa(lp307
I0
aI0
aI0
aI0
aI0
aI0
aI0
aI0
aI0
aI0
aI0
aI0
aI2
aI9
aI18
aI45
aI64
aI81
aI93
aI93
aI87
aI87
aI108
aI99
aI103
aI89
aI79
aI85
aI107
aI129
aI144
aI155
aI203
aI246
aI263
aI243
aI234
aI239
aI196
aI167
aI210
aI262
aI262
aI339
aI276
aI288
aI278
aI260
aI279
aI273
aI316
aI356
aI330
aI398
aI457
aI410
aI422
aI412
aI511
aI440
aa(lp308
I0
aI0
aI0
aI0
aI0
aI0
aI0
aI0
aI0
aI1
aI0
aI4
aI20
aI68
aI145
aI228
aI262
aI220
aI221
aI213
aI258
aI307
aI465
aI509
aI528
aI619
aI542
aI651
aI561
aI532
aI601
aI618
aI624
aI785
aI940
aI849
aI855
aI894
aI891
aI945
aI1032
aI1186
aI1384
aI1481
aI1529
aI1579
aI1607
aI1659
aI1675
aI1702
aI1797
aI1892
aI1988
aI1900
aI1870
aI1939
aI1984
aI2210
aI2300
aI2403
aa(lp309
I0
aI0
aI0
aI0
aI13
aI32
aI122
aI816
aI3950
aI6022
aI4645
aI5381
aI8606
aI10828
aI13271
aI16113
aI17892
aI19156
aI20894
aI22742
aI25855
aI30072
aI34334
aI39407
aI43545
aI49494
aI56329
aI60289
aI65223
aI70876
aI76851
aI83515
aI89328
aI96473
aI104965
aI111436
aI117641
aI123536
aI131737
aI138890
aI145229
aI151106
aI157183
aI166027
aI172840
aI181842
aI190296
aI197678
aI205958
aI214224
aI222985
aI232551
aI239964
aI249048
aI256063
aI266256
aI274877
aI284222
aI292328
aI301044
aa(lp310
I0
aI0
aI0
aI0
aI0
aI0
aI0
aI0
aI0
aI0
aI0
aI3
aI11
aI26
aI146
aI393
aI1261
aI2367
aI3240
aI4161
aI4859
aI5512
aI6563
aI7769
aI8813
aI9604
aI10739
aI12142
aI13249
aI14269
aI15472
aI16124
aI16956
aI18035
aI19655
aI21067
aI21988
aI23232
aI25128
aI26339
aI28240
aI29895
aI31766
aI33613
aI35120
aI37003
aI38841
aI41512
aI43506
aI45308
aI46528
aI48138
aI49738
aI51664
aI54255
aI56052
aI58141
aI59785
aI61891
aI63946
aa(lp311
I0
aI0
aI0
aI0
aI0
aI0
aI0
aI0
aI1
aI2
aI0
aI7
aI38
aI211
aI1026
aI1564
aI1992
aI2624
aI3490
aI4390
aI5188
aI6375
aI8052
aI9512
aI10572
aI12017
aI13329
aI14667
aI16332
aI18341
aI20026
aI21915
aI24192
aI25504
aI27006
aI29222
aI31481
aI33613
aI37590
aI39970
aI43439
aI46692
aI50290
aI52808
aI55806
aI58352
aI60274
aI62647
aI65785
aI68136
aI70103
aI72753
aI75082
aI77148
aI80300
aI83075
aI85172
aI87460
aI88424
aI90847
aa(lp312
I0
aI0
aI0
aI0
aI0
aI0
aI0
aI0
aI0
aI0
aI1
aI2
aI2
aI12
aI46
aI181
aI575
aI1264
aI1852
aI2634
aI3331
aI4338
aI5174
aI5849
aI6624
aI6966
aI7277
aI7804
aI8549
aI8891
aI9313
aI9102
aI9041
aI9109
aI9405
aI9796
aI9912
aI10029
aI10079
aI10420
aI10887
aI11310
aI11574
aI11844
aI12192
aI12411
aI13191
aI13434
aI14216
aI14764
aI15155
aI15426
aI15914
aI16437
aI16661
aI17323
aI17766
aI18434
aI19294
aI19579
aa(lp313
I0
aI0
aI0
aI0
aI0
aI0
aI0
aI0
aI0
aI0
aI0
aI0
aI3
aI13
aI34
aI101
aI212
aI406
aI547
aI732
aI977
aI1114
aI1350
aI1651
aI1769
aI1922
aI2092
aI2028
aI2174
aI2403
aI2450
aI2417
aI2475
aI2494
aI2440
aI2462
aI2521
aI2462
aI2582
aI2618
aI2840
aI2879
aI2829
aI3060
aI3158
aI3296
aI3477
aI3455
aI3673
aI3877
aI3923
aI4045
aI4124
aI4141
aI4145
aI4127
aI4376
aI4534
aI4775
aI4895
aa(lp314
I0
aI0
aI0
aI0
aI0
aI0
aI0
aI0
aI0
aI0
aI0
aI1
aI0
aI0
aI7
aI33
aI54
aI108
aI186
aI234
aI280
aI430
aI645
aI811
aI800
aI758
aI753
aI1000
aI1185
aI1555
aI1610
aI1690
aI1544
aI1420
aI1459
aI1382
aI1452
aI1546
aI1631
aI1655
aI1736
aI1915
aI1955
aI2064
aI2082
aI2382
aI2554
aI2461
aI2398
aI2606
aI2547
aI2759
aI2764
aI2901
aI2824
aI2941
aI3213
aI3335
aI3352
aI3541
aa(lp315
I0
aI0
aI0
aI0
aI0
aI0
aI0
aI0
aI0
aI0
aI0
aI0
aI1
aI10
aI33
aI96
aI297
aI636
aI647
aI562
aI623
aI666
aI714
aI713
aI753
aI860
aI984
aI1086
aI1339
aI1410
aI1561
aI1633
aI1554
aI1623
aI1667
aI1645
aI1776
aI1759
aI1755
aI1878
aI2077
aI2202
aI2177
aI2207
aI2137
aI2295
aI2461
aI2527
aI2533
aI2641
aI2662
aI2830
aI3122
aI3034
aI3040
aI3125
aI3274
aI3468
aI3864
aI4180
aa(lp316
I0
aI0
aI0
aI0
aI0
aI0
aI0
aI0
aI0
aI1
aI6
aI25
aI33
aI164
aI531
aI659
aI568
aI552
aI615
aI559
aI604
aI685
aI740
aI936
aI1236
aI1504
aI1650
aI1778
aI1916
aI1972
aI1914
aI2047
aI2077
aI1954
aI2028
aI2226
aI2394
aI2396
aI2391
aI2487
aI2487
aI2645
aI2719
aI2780
aI2840
aI3049
aI3200
aI3295
aI3374
aI3417
aI3449
aI3357
aI3472
aI3572
aI3644
aI3614
aI3723
aI3862
aI4036
aI4181
aa(lp317
I0
aI0
aI0
aI0
aI0
aI0
aI0
aI0
aI0
aI1
aI0
aI13
aI27
aI127
aI420
aI739
aI792
aI1019
aI1135
aI1454
aI1830
aI2335
aI3141
aI3728
aI4375
aI5230
aI5699
aI6548
aI7845
aI8674
aI9384
aI10284
aI11118
aI11985
aI13465
aI14631
aI15702
aI16705
aI17643
aI18768
aI20325
aI21915
aI23350
aI23876
aI24683
aI26900
aI28030
aI29272
aI30493
aI32054
aI34011
aI35302
aI35484
aI36621
aI37874
aI38606
aI39907
aI40702
aI41213
aI42135
aa(lp318
I0
aI0
aI0
aI0
aI0
aI0
aI0
aI0
aI0
aI2
aI4
aI11
aI12
aI15
aI29
aI19
aI9
aI13
aI10
aI17
aI36
aI34
aI46
aI51
aI81
aI112
aI94
aI97
aI164
aI143
aI185
aI232
aI252
aI239
aI211
aI169
aI152
aI143
aI146
aI151
aI136
aI144
aI178
aI249
aI479
aI378
aI259
aI182
aI128
aI154
aI133
aI95
aI117
aI108
aI122
aI131
aI147
aI133
aI113
aI113
aa(lp319
I0
aI0
aI0
aI0
aI0
aI0
aI0
aI0
aI1
aI0
aI2
aI2
aI6
aI35
aI114
aI216
aI350
aI399
aI512
aI722
aI792
aI949
aI1195
aI1393
aI1683
aI2053
aI2408
aI2679
aI2780
aI2603
aI2590
aI2467
aI2392
aI2706
aI2878
aI2884
aI2983
aI3103
aI3253
aI3505
aI3559
aI3661
aI4011
aI4376
aI4424
aI4336
aI4479
aI4586
aI4743
aI4696
aI4907
aI5056
aI5360
aI5544
aI5746
aI5999
aI5999
aI6434
aI6500
aI6775
aa(lp320
I0
aI0
aI0
aI0
aI0
aI0
aI0
aI0
aI0
aI2
aI2
aI2
aI20
aI71
aI181
aI390
aI801
aI1136
aI1656
aI2214
aI2687
aI3035
aI3399
aI3629
aI4478
aI5147
aI5872
aI6363
aI6768
aI6720
aI6998
aI7691
aI9140
aI10376
aI11409
aI12954
aI14327
aI15734
aI16972
aI17951
aI19787
aI21150
aI22262
aI23451
aI25166
aI26035
aI27561
aI28960
aI29181
aI30668
aI31521
aI31786
aI33276
aI34719
aI35750
aI36507
aI38403
aI39509
aI40781
aI42008
aa(lp321
I0
aI0
aI0
aI0
aI0
aI0
aI1
aI1
aI2
aI25
aI59
aI2050
aI610
aI371
aI418
aI490
aI620
aI709
aI804
aI864
aI1105
aI1377
aI1604
aI1827
aI2040
aI2307
aI2280
aI2465
aI2548
aI2565
aI2639
aI2873
aI2942
aI3269
aI3301
aI3380
aI3571
aI3821
aI4137
aI4117
aI4336
aI4349
aI4281
aI4377
aI4580
aI4715
aI5042
aI5012
aI5116
aI5279
aI5466
aI5786
aI5822
aI6214
aI6553
aI6519
aI6372
aI6441
aI6823
aI6731
aa(lp322
I0
aI0
aI0
aI0
aI0
aI3
aI5
aI2
aI4
aI1
aI9
aI48
aI163
aI629
aI1047
aI1283
aI1491
aI1763
aI1945
aI2144
aI2408
aI3145
aI3799
aI4449
aI5134
aI5752
aI5926
aI6261
aI6596
aI6457
aI6700
aI6688
aI6826
aI6859
aI7295
aI7769
aI8483
aI8916
aI9488
aI9967
aI10010
aI10269
aI10464
aI11118
aI11705
aI11842
aI12013
aI12163
aI12586
aI13097
aI13455
aI14021
aI14358
aI14664
aI14851
aI15459
aI16064
aI16536
aI16922
aI17372
aa(lp323
I0
aI0
aI0
aI0
aI0
aI0
aI0
aI0
aI0
aI0
aI0
aI0
aI1
aI2
aI3
aI7
aI33
aI56
aI79
aI113
aI148
aI158
aI225
aI234
aI296
aI313
aI331
aI286
aI311
aI319
aI336
aI319
aI342
aI348
aI370
aI412
aI401
aI402
aI446
aI411
aI470
aI528
aI533
aI598
aI617
aI647
aI609
aI703
aI703
aI760
aI802
aI973
aI818
aI993
aI1027
aI965
aI1065
aI1043
aI1082
aI1141
aa(lp324
I0
aI0
aI0
aI0
aI0
aI0
aI0
aI0
aI0
aI0
aI0
aI0
aI8
aI15
aI2
aI8
aI12
aI20
aI53
aI51
aI52
aI63
aI68
aI60
aI68
aI85
aI119
aI87
aI94
aI92
aI96
aI86
aI93
aI86
aI101
aI110
aI127
aI197
aI210
aI171
aI198
aI194
aI197
aI213
aI164
aI191
aI184
aI257
aI272
aI242
aI273
aI274
aI293
aI324
aI305
aI352
aI403
aI434
aI545
aI505
aa(lp325
I0
aI0
aI0
aI0
aI0
aI0
aI0
aI0
aI0
aI1
aI0
aI0
aI4
aI8
aI29
aI42
aI41
aI57
aI70
aI73
aI109
aI167
aI232
aI267
aI380
aI412
aI471
aI542
aI617
aI651
aI672
aI710
aI743
aI767
aI756
aI837
aI920
aI927
aI889
aI1062
aI1217
aI1179
aI1182
aI1326
aI1299
aI1444
aI1537
aI1680
aI1724
aI1846
aI1995
aI2060
aI1977
aI2208
aI2272
aI2276
aI2368
aI2515
aI2594
aI2576
aa(lp326
I0
aI0
aI0
aI0
aI13
aI41
aI106
aI747
aI1208
aI1474
aI1799
aI3019
aI5511
aI7815
aI10076
aI12270
aI14472
aI16942
aI20114
aI25261
aI31235
aI37353
aI42469
aI48779
aI54866
aI58973
aI64612
aI69980
aI75078
aI79743
aI85378
aI91500
aI97474
aI104982
aI111329
aI116695
aI123240
aI131667
aI139332
aI148226
aI155913
aI161490
aI168322
aI175976
aI184494
aI193245
aI202464
aI211223
aI219624
aI227179
aI236439
aI245083
aI252793
aI262859
aI270693
aI279623
aI288625
aI298188
aI308365
aI318197
aa(lp327
I0
aI0
aI0
aI0
aI0
aI0
aI0
aI0
aI1
aI4
aI1
aI0
aI1
aI3
aI1
aI4
aI14
aI31
aI120
aI334
aI626
aI886
aI1155
aI1402
aI1698
aI1588
aI1504
aI1415
aI1417
aI1356
aI1515
aI1824
aI1575
aI1649
aI1861
aI1966
aI2228
aI2295
aI2563
aI2643
aI3142
aI3464
aI3416
aI3567
aI3676
aI4207
aI4431
aI4574
aI4533
aI4908
aI4898
aI5142
aI5529
aI5564
aI5542
aI5827
aI6037
aI6112
aI6358
aI6678
aa(lp328
I0
aI0
aI0
aI0
aI0
aI0
aI0
aI0
aI0
aI0
aI0
aI0
aI5
aI6
aI1
aI2
aI13
aI38
aI128
aI420
aI633
aI957
aI1387
aI1847
aI2004
aI1813
aI1839
aI1874
aI1842
aI1980
aI2062
aI2139
aI2133
aI2429
aI2768
aI2957
aI2951
aI3275
aI3675
aI4116
aI4852
aI5021
aI5552
aI6132
aI6217
aI6739
aI6719
aI6855
aI7186
aI7110
aI7509
aI7954
aI8127
aI8068
aI8274
aI8649
aI8519
aI8304
aI8805
aI9228
aa(lp329
I0
aI0
aI0
aI0
aI0
aI0
aI0
aI0
aI0
aI0
aI0
aI0
aI0
aI0
aI1
aI1
aI5
aI22
aI49
aI127
aI210
aI418
aI656
aI592
aI573
aI539
aI638
aI738
aI767
aI691
aI654
aI750
aI853
aI963
aI934
aI847
aI819
aI818
aI808
aI997
aI1018
aI1051
aI1109
aI1098
aI1180
aI1191
aI1357
aI1537
aI1674
aI1668
aI1800
aI1773
aI1737
aI1815
aI1801
aI2155
aI2115
aI2222
aI2180
aI2081
aa(lp330
I0
aI0
aI0
aI0
aI0
aI0
aI0
aI0
aI0
aI0
aI0
aI0
aI0
aI0
aI0
aI0
aI5
aI16
aI26
aI37
aI89
aI151
aI153
aI188
aI186
aI141
aI182
aI182
aI229
aI237
aI207
aI230
aI220
aI198
aI209
aI220
aI217
aI236
aI322
aI345
aI291
aI325
aI329
aI353
aI355
aI373
aI384
aI416
aI384
aI435
aI435
aI418
aI474
aI561
aI582
aI536
aI463
aI483
aI544
aI498
aa(lp331
I0
aI0
aI0
aI0
aI0
aI0
aI0
aI0
aI0
aI0
aI0
aI0
aI0
aI0
aI0
aI1
aI0
aI1
aI4
aI10
aI40
aI58
aI85
aI72
aI56
aI84
aI104
aI78
aI97
aI73
aI130
aI193
aI228
aI163
aI115
aI137
aI154
aI169
aI164
aI184
aI165
aI206
aI289
aI321
aI342
aI294
aI250
aI243
aI274
aI213
aI267
aI288
aI308
aI245
aI255
aI285
aI330
aI295
aI271
aI308
aa(lp332
I0
aI0
aI0
aI0
aI0
aI0
aI0
aI0
aI0
aI0
aI1
aI0
aI3
aI10
aI5
aI0
aI5
aI14
aI22
aI98
aI123
aI214
aI257
aI339
aI256
aI192
aI200
aI156
aI170
aI119
aI130
aI138
aI98
aI114
aI121
aI130
aI142
aI182
aI192
aI205
aI217
aI176
aI203
aI289
aI328
aI290
aI264
aI246
aI284
aI331
aI264
aI365
aI398
aI337
aI320
aI366
aI362
aI431
aI442
aI459
aa(lp333
I0
aI0
aI0
aI0
aI0
aI0
aI2
aI1
aI13
aI1
aI0
aI0
aI1
aI1
aI7
aI19
aI23
aI78
aI191
aI303
aI301
aI179
aI168
aI174
aI128
aI150
aI158
aI169
aI211
aI198
aI239
aI221
aI213
aI167
aI197
aI202
aI195
aI220
aI218
aI289
aI338
aI306
aI284
aI296
aI334
aI310
aI311
aI368
aI407
aI381
aI403
aI400
aI400
aI392
aI407
aI423
aI444
aI530
aI507
aI484
aa(lp334
I0
aI0
aI0
aI0
aI0
aI0
aI0
aI0
aI0
aI0
aI0
aI0
aI0
aI1
aI2
aI7
aI30
aI110
aI326
aI684
aI631
aI535
aI423
aI469
aI490
aI687
aI838
aI792
aI876
aI893
aI962
aI1038
aI1125
aI1268
aI1389
aI1464
aI1627
aI1629
aI1702
aI2036
aI2128
aI2285
aI2687
aI2659
aI2897
aI2939
aI3173
aI3297
aI3293
aI3390
aI3698
aI3827
aI3993
aI4091
aI3940
aI4072
aI4124
aI4101
aI4042
aI4119
aa(lp335
I0
aI0
aI0
aI0
aI0
aI0
aI0
aI0
aI0
aI0
aI1
aI4
aI1
aI3
aI37
aI111
aI19
aI17
aI8
aI1
aI4
aI0
aI0
aI2
aI5
aI10
aI19
aI38
aI32
aI22
aI3
aI1
aI4
aI7
aI8
aI6
aI3
aI9
aI18
aI18
aI35
aI23
aI6
aI8
aI7
aI11
aI3
aI6
aI6
aI12
aI3
aI4
aI4
aI9
aI6
aI8
aI12
aI10
aI20
aI18
aa(lp336
I0
aI0
aI0
aI0
aI0
aI0
aI0
aI0
aI0
aI0
aI0
aI0
aI0
aI0
aI0
aI3
aI9
aI37
aI52
aI69
aI74
aI91
aI121
aI143
aI152
aI215
aI303
aI267
aI173
aI172
aI173
aI195
aI283
aI370
aI368
aI355
aI313
aI311
aI365
aI410
aI481
aI443
aI416
aI475
aI440
aI458
aI533
aI556
aI529
aI513
aI502
aI512
aI476
aI491
aI629
aI567
aI677
aI657
aI628
aI592
aa(lp337
I0
aI0
aI0
aI0
aI0
aI0
aI0
aI0
aI0
aI0
aI0
aI1
aI2
aI0
aI4
aI9
aI50
aI85
aI136
aI183
aI229
aI284
aI358
aI500
aI548
aI484
aI585
aI719
aI863
aI1078
aI1194
aI1007
aI1145
aI1122
aI1312
aI1362
aI1482
aI1760
aI1931
aI2017
aI2211
aI2483
aI2634
aI2532
aI2492
aI2574
aI2708
aI2857
aI3135
aI3037
aI3235
aI3482
aI3541
aI3665
aI4023
aI4214
aI4226
aI4358
aI4386
aI4718
aa(lp338
I0
aI0
aI0
aI0
aI0
aI0
aI0
aI3
aI0
aI0
aI1
aI0
aI1
aI2
aI5
aI10
aI27
aI97
aI171
aI221
aI135
aI135
aI155
aI161
aI168
aI204
aI221
aI198
aI189
aI243
aI236
aI229
aI287
aI256
aI246
aI301
aI270
aI304
aI307
aI400
aI498
aI434
aI433
aI384
aI438
aI460
aI450
aI525
aI482
aI455
aI461
aI516
aI442
aI510
aI628
aI573
aI560
aI567
aI585
aI570
aa(lp339
I0
aI0
aI0
aI0
aI0
aI0
aI1
aI2
aI0
aI2
aI2
aI3
aI1
aI3
aI18
aI31
aI110
aI300
aI564
aI593
aI536
aI509
aI473
aI518
aI506
aI577
aI606
aI541
aI605
aI573
aI574
aI621
aI596
aI688
aI848
aI813
aI998
aI1064
aI1088
aI1090
aI1094
aI1125
aI1235
aI1189
aI1248
aI1189
aI1205
aI1311
aI1476
aI1434
aI1440
aI1584
aI1571
aI1585
aI1559
aI1698
aI1750
aI1717
aI1893
aI1855
aa(lp340
I0
aI0
aI0
aI0
aI0
aI0
aI0
aI0
aI0
aI0
aI0
aI0
aI0
aI0
aI0
aI1
aI1
aI2
aI3
aI3
aI12
aI13
aI32
aI38
aI30
aI47
aI59
aI59
aI42
aI45
aI39
aI27
aI26
aI38
aI29
aI46
aI43
aI51
aI47
aI41
aI44
aI59
aI84
aI79
aI87
aI101
aI112
aI97
aI94
aI111
aI111
aI146
aI138
aI159
aI126
aI146
aI103
aI120
aI127
aI137
aa(lp341
I0
aI0
aI0
aI0
aI0
aI0
aI0
aI0
aI0
aI0
aI0
aI0
aI0
aI0
aI0
aI0
aI3
aI27
aI10
aI2
aI6
aI4
aI15
aI8
aI3
aI3
aI6
aI7
aI4
aI4
aI2
aI7
aI4
aI3
aI9
aI9
aI19
aI25
aI19
aI6
aI9
aI21
aI40
aI48
aI50
aI20
aI43
aI30
aI21
aI25
aI18
aI29
aI29
aI51
aI53
aI52
aI37
aI38
aI33
aI45
aa(lp342
I0
aI0
aI0
aI0
aI0
aI0
aI0
aI0
aI0
aI0
aI0
aI0
aI0
aI1
aI0
aI1
aI3
aI19
aI61
aI93
aI43
aI35
aI82
aI109
aI94
aI45
aI83
aI56
aI91
aI108
aI82
aI99
aI97
aI93
aI97
aI89
aI110
aI122
aI130
aI121
aI164
aI215
aI217
aI199
aI194
aI255
aI283
aI223
aI213
aI182
aI198
aI201
aI174
aI182
aI221
aI192
aI251
aI214
aI291
aI357
aa(lp343
I0
aI0
aI0
aI0
aI0
aI0
aI22
aI13
aI4
aI15
aI24
aI86
aI303
aI868
aI1755
aI2092
aI2355
aI2644
aI3278
aI3718
aI4163
aI4868
aI5000
aI5292
aI5449
aI5991
aI6204
aI6985
aI7815
aI8643
aI9013
aI9580
aI10232
aI10848
aI11412
aI12177
aI12986
aI14130
aI15359
aI15490
aI16052
aI17413
aI18339
aI19251
aI19974
aI20599
aI21187
aI21783
aI23136
aI24073
aI24894
aI25585
aI27361
aI28686
aI29386
aI29699
aI30638
aI31106
aI32040
aI33230
aa(lp344
I0
aI0
aI0
aI0
aI0
aI0
aI0
aI0
aI0
aI0
aI1
aI6
aI18
aI67
aI253
aI887
aI2447
aI4110
aI4952
aI5130
aI5573
aI5833
aI7441
aI8806
aI9780
aI11230
aI12975
aI14979
aI17086
aI18218
aI18432
aI20068
aI21897
aI24785
aI27304
aI29867
aI31813
aI34034
aI36962
aI39997
aI42785
aI45745
aI48419
aI51595
aI53657
aI56211
aI59192
aI61652
aI63959
aI65933
aI67968
aI70837
aI72949
aI76946
aI80234
aI82914
aI86222
aI89847
aI93636
aI97135
aa(lp345
I0
aI0
aI0
aI0
aI0
aI0
aI0
aI1
aI1
aI0
aI1
aI7
aI31
aI113
aI488
aI2175
aI5739
aI9246
aI13144
aI12911
aI11028
aI11345
aI12921
aI15465
aI17922
aI19058
aI22330
aI26473
aI31082
aI32673
aI32012
aI31705
aI32274
aI33767
aI37284
aI41468
aI44845
aI47292
aI51565
aI56647
aI61907
aI67090
aI69287
aI71007
aI73912
aI79357
aI84671
aI88842
aI93156
aI97074
aI100827
aI105771
aI110335
aI113215
aI115899
aI117567
aI121194
aI125110
aI129761
aI133481
aa(lp346
I0
aI0
aI0
aI0
aI0
aI0
aI0
aI0
aI0
aI0
aI0
aI2
aI3
aI16
aI62
aI173
aI548
aI951
aI1097
aI1351
aI1545
aI1773
aI2319
aI2777
aI3052
aI3442
aI3918
aI4696
aI5663
aI6147
aI6531
aI6723
aI7202
aI7792
aI8303
aI9010
aI9644
aI10196
aI10887
aI11304
aI12286
aI12826
aI13375
aI13951
aI14567
aI15536
aI16552
aI17235
aI17864
aI18964
aI20156
aI21203
aI22322
aI23177
aI24079
aI24990
aI26116
aI26490
aI27820
aI28974
aa(lp347
I0
aI0
aI0
aI0
aI0
aI0
aI0
aI0
aI0
aI0
aI0
aI0
aI4
aI11
aI53
aI153
aI437
aI673
aI797
aI802
aI814
aI897
aI1101
aI1521
aI1769
aI1923
aI1983
aI2263
aI2436
aI2555
aI2479
aI2376
aI2421
aI2608
aI2843
aI3100
aI3042
aI3100
aI3227
aI3575
aI3557
aI3788
aI4115
aI4027
aI4328
aI4494
aI4823
aI5021
aI5068
aI5308
aI5509
aI5675
aI5658
aI5767
aI6297
aI6352
aI6663
aI6767
aI6922
aI6976
aa(lp348
I0
aI0
aI0
aI0
aI0
aI0
aI0
aI0
aI0
aI1
aI0
aI1
aI0
aI5
aI25
aI93
aI179
aI236
aI331
aI446
aI489
aI514
aI590
aI677
aI823
aI983
aI1454
aI1616
aI1712
aI1865
aI2133
aI2228
aI2274
aI2371
aI2552
aI2941
aI3164
aI3500
aI3880
aI3688
aI3671
aI3791
aI3831
aI3632
aI3784
aI3799
aI4019
aI4207
aI4099
aI3962
aI3956
aI3972
aI3968
aI4067
aI4221
aI4374
aI4465
aI4530
aI4454
aI4711
aa(lp349
I0
aI0
aI0
aI0
aI0
aI0
aI0
aI0
aI0
aI0
aI3
aI1
aI12
aI50
aI146
aI460
aI1221
aI2276
aI2618
aI2400
aI2190
aI2143
aI2337
aI2511
aI2711
aI3039
aI3554
aI3781
aI4126
aI3804
aI3503
aI3306
aI2946
aI2878
aI3029
aI3244
aI3472
aI3454
aI3611
aI3648
aI3821
aI4057
aI3760
aI3444
aI3472
aI3612
aI3728
aI3830
aI3848
aI3915
aI4239
aI4177
aI4164
aI4215
aI4428
aI4653
aI4927
aI5512
aI5858
aI6205
aa(lp350
I0
aI0
aI0
aI0
aI0
aI0
aI0
aI1
aI0
aI3
aI19
aI98
aI522
aI1752
aI2403
aI1946
aI1740
aI1885
aI2147
aI2385
aI2612
aI2973
aI3292
aI3783
aI4812
aI5877
aI4872
aI3734
aI3487
aI3406
aI3694
aI3820
aI3928
aI4402
aI4850
aI4958
aI5084
aI5204
aI4724
aI4404
aI4288
aI4343
aI4507
aI4678
aI4724
aI4832
aI5140
aI5141
aI5107
aI5260
aI5273
aI5439
aI5441
aI5538
aI5636
aI5537
aI5992
aI6044
aI6485
aI6617
aa(lp351
I0
aI0
aI0
aI0
aI0
aI0
aI1
aI0
aI0
aI2
aI4
aI55
aI374
aI2170
aI4533
aI3500
aI3306
aI3790
aI4594
aI5321
aI5674
aI7101
aI7931
aI9387
aI11671
aI13664
aI13016
aI11337
aI10986
aI11203
aI12526
aI14208
aI15980
aI18009
aI20387
aI21749
aI22396
aI23994
aI24394
aI25677
aI27271
aI29416
aI32182
aI34403
aI36579
aI38365
aI41204
aI42132
aI44157
aI46684
aI48362
aI49789
aI51317
aI53274
aI55346
aI57004
aI57965
aI60086
aI61996
aI62831
aa(lp352
I0
aI0
aI0
aI0
aI0
aI0
aI1
aI1
aI55
aI206
aI699
aI605
aI361
aI243
aI259
aI306
aI378
aI786
aI750
aI860
aI1320
aI1981
aI1614
aI1042
aI603
aI419
aI307
aI247
aI219
aI329
aI684
aI456
aI329
aI299
aI250
aI218
aI183
aI157
aI138
aI187
aI150
aI173
aI147
aI136
aI124
aI136
aI141
aI151
aI123
aI108
aI118
aI100
aI105
aI132
aI137
aI159
aI157
aI119
aI128
aI142
aa(lp353
I0
aI0
aI0
aI0
aI0
aI0
aI0
aI1
aI1
aI1
aI5
aI12
aI65
aI131
aI290
aI402
aI451
aI481
aI587
aI682
aI901
aI1201
aI1421
aI1876
aI2203
aI2534
aI2913
aI2998
aI3306
aI3522
aI3758
aI4261
aI4786
aI5489
aI5935
aI6386
aI6344
aI6521
aI6591
aI6697
aI6601
aI6760
aI6967
aI7021
aI7354
aI7525
aI7362
aI7856
aI7646
aI7546
aI7520
aI7777
aI7983
aI8262
aI8440
aI8404
aI8590
aI8658
aI9052
aI9030
aa(lp354
I0
aI0
aI0
aI0
aI0
aI1
aI1
aI1
aI3
aI2
aI6
aI24
aI66
aI163
aI392
aI598
aI771
aI1148
aI1650
aI2094
aI2877
aI3894
aI4586
aI6400
aI9300
aI9680
aI9569
aI10052
aI11293
aI13176
aI14111
aI14477
aI15277
aI16538
aI18657
aI21105
aI22528
aI22346
aI23103
aI24659
aI26377
aI28410
aI29428
aI29858
aI31823
aI34333
aI36544
aI38998
aI41912
aI43034
aI44893
aI47271
aI49151
aI49883
aI51839
aI53363
aI56424
aI59066
aI61175
aI63380
aa(lp355
I0
aI0
aI0
aI0
aI0
aI1
aI0
aI1
aI5
aI5
aI17
aI124
aI790
aI1477
aI861
aI751
aI992
aI1366
aI1653
aI1847
aI2137
aI2526
aI2877
aI3233
aI3840
aI4051
aI3304
aI2884
aI2879
aI2983
aI3204
aI3931
aI4297
aI4368
aI4441
aI4673
aI4879
aI4873
aI4911
aI5135
aI5266
aI5533
aI5800
aI6279
aI6416
aI6728
aI7002
aI7001
aI7224
aI7038
aI7208
aI7369
aI7630
aI8103
aI8314
aI8775
aI8868
aI8790
aI9070
aI9230
aa(lp356
I0
aI0
aI0
aI0
aI0
aI4
aI4
aI10
aI4
aI12
aI53
aI277
aI1251
aI3428
aI3008
aI2653
aI2793
aI3096
aI3863
aI4450
aI5621
aI6401
aI7164
aI7975
aI9140
aI10451
aI9008
aI8105
aI7813
aI8549
aI8946
aI9782
aI10635
aI11583
aI12126
aI12392
aI12782
aI13301
aI13233
aI13869
aI13991
aI14495
aI14861
aI15724
aI16343
aI17086
aI17542
aI17781
aI17796
aI18016
aI18241
aI18237
aI18893
aI19410
aI20105
aI20846
aI21317
aI21915
aI22520
aI23066
aa(lp357
I0
aI0
aI0
aI0
aI0
aI0
aI0
aI0
aI0
aI1
aI0
aI1
aI3
aI1
aI6
aI17
aI31
aI31
aI39
aI54
aI90
aI94
aI128
aI158
aI187
aI203
aI197
aI210
aI248
aI276
aI324
aI334
aI360
aI445
aI464
aI498
aI584
aI597
aI534
aI627
aI655
aI713
aI866
aI814
aI800
aI911
aI1034
aI1012
aI1074
aI1142
aI1123
aI1195
aI1368
aI1489
aI1489
aI1450
aI1534
aI1658
aI1705
aI1810
aa(lp358
I0
aI0
aI0
aI0
aI0
aI0
aI0
aI0
aI0
aI0
aI0
aI0
aI0
aI2
aI6
aI12
aI77
aI93
aI43
aI67
aI67
aI56
aI56
aI92
aI88
aI110
aI74
aI116
aI132
aI119
aI109
aI153
aI167
aI177
aI177
aI204
aI280
aI340
aI362
aI359
aI342
aI400
aI422
aI455
aI462
aI446
aI449
aI507
aI555
aI539
aI555
aI539
aI589
aI585
aI655
aI699
aI710
aI821
aI724
aI818
aa(lp359
I0
aI0
aI0
aI0
aI0
aI0
aI0
aI0
aI0
aI0
aI0
aI2
aI17
aI50
aI86
aI131
aI222
aI277
aI213
aI221
aI243
aI274
aI459
aI647
aI757
aI852
aI942
aI870
aI814
aI844
aI836
aI916
aI1013
aI1107
aI1263
aI1345
aI1390
aI1461
aI1514
aI1603
aI1685
aI1783
aI1823
aI1967
aI2208
aI2307
aI2322
aI2443
aI2477
aI2576
aI2627
aI2863
aI2992
aI3231
aI3352
aI3375
aI3402
aI3593
aI3575
aI3490
aa(lp360
I0
aI0
aI0
aI0
aI33
aI76
aI405
aI2033
aI6878
aI8164
aI6131
aI7301
aI11491
aI16967
aI23118
aI29717
aI33510
aI37173
aI40454
aI47403
aI57011
aI60364
aI62460
aI67053
aI75624
aI84346
aI92418
aI98509
aI103497
aI111881
aI121425
aI130581
aI140912
aI152606
aI161569
aI171075
aI181778
aI193895
aI204318
aI214341
aI222987
aI234641
aI247879
aI261122
aI273452
aI286392
aI297822
aI310441
aI321153
aI333085
aI346713
aI358627
aI369947
aI382512
aI397774
aI412926
aI427686
aI438953
aI452792
aI468304
aa(lp361
I0
aI0
aI0
aI0
aI0
aI1
aI45
aI112
aI3
aI3
aI4
aI52
aI115
aI185
aI669
aI2387
aI6934
aI12880
aI16813
aI18482
aI19864
aI21652
aI25888
aI31972
aI36186
aI36890
aI38910
aI42187
aI45529
aI49433
aI53253
aI57222
aI62522
aI66825
aI73058
aI78286
aI84761
aI90682
aI96695
aI102279
aI107965
aI114200
aI121312
aI128433
aI134200
aI141616
aI148525
aI154825
aI162475
aI169186
aI176060
aI182915
aI191062
aI198977
aI205930
aI214787
aI222767
aI230106
aI238338
aI247371
aa(lp362
I0
aI0
aI0
aI0
aI0
aI4
aI463
aI1230
aI24
aI15
aI27
aI869
aI1104
aI642
aI2638
aI5679
aI13481
aI24996
aI36227
aI35287
aI32391
aI32535
aI35283
aI40632
aI46367
aI50434
aI57128
aI66221
aI73048
aI77683
aI84257
aI89641
aI95699
aI101611
aI110100
aI120397
aI129196
aI138374
aI148270
aI159137
aI173104
aI184523
aI192593
aI199787
aI208354
aI218375
aI227304
aI236558
aI244777
aI255231
aI263500
aI273360
aI282956
aI292521
aI299511
aI306663
aI313751
aI323137
aI331673
aI340379
aa(lp363
I0
aI0
aI0
aI0
aI0
aI0
aI6
aI2
aI0
aI3
aI2
aI12
aI30
aI61
aI228
aI803
aI2345
aI4225
aI5913
aI7277
aI8575
aI10299
aI12702
aI15705
aI17812
aI19015
aI19979
aI21186
aI23804
aI25128
aI26061
aI26738
aI27070
aI28235
aI29264
aI30795
aI31895
aI33552
aI35129
aI36489
aI38327
aI40121
aI41131
aI42391
aI44280
aI45530
aI47111
aI48650
aI50228
aI52163
aI54366
aI57023
aI59120
aI61658
aI64292
aI66605
aI68299
aI70191
aI72814
aI75441
aa(lp364
I0
aI0
aI0
aI0
aI0
aI0
aI2
aI0
aI0
aI0
aI0
aI6
aI24
aI121
aI306
aI725
aI1791
aI3196
aI3963
aI3778
aI3737
aI3994
aI4624
aI5857
aI6805
aI6660
aI6887
aI7129
aI7824
aI7725
aI8275
aI8256
aI8200
aI8570
aI8832
aI9456
aI9677
aI10053
aI10520
aI10836
aI11076
aI11620
aI11532
aI11992
aI12522
aI12787
aI12778
aI13098
aI13523
aI14049
aI14257
aI15181
aI15312
aI15686
aI15904
aI16570
aI17224
aI17677
aI17717
aI18221
aa(lp365
I0
aI0
aI0
aI0
aI0
aI0
aI0
aI0
aI0
aI1
aI1
aI37
aI51
aI49
aI310
aI1584
aI4253
aI5437
aI3681
aI2619
aI2271
aI2268
aI2344
aI2555
aI3033
aI3631
aI4392
aI4501
aI5112
aI5361
aI5473
aI5255
aI5169
aI5211
aI5610
aI6453
aI6893
aI7391
aI7888
aI8102
aI8120
aI8569
aI8570
aI8480
aI8714
aI8920
aI9291
aI9812
aI9765
aI10066
aI10401
aI10566
aI10531
aI11392
aI11908
aI11713
aI11811
aI12208
aI12521
aI13034
aa(lp366
I0
aI0
aI0
aI0
aI0
aI0
aI0
aI0
aI2
aI0
aI4
aI17
aI65
aI530
aI510
aI1066
aI2615
aI4520
aI5910
aI5087
aI4363
aI4231
aI4333
aI4666
aI4934
aI4922
aI5514
aI6080
aI6401
aI6608
aI6456
aI6553
aI6935
aI7095
aI7193
aI7176
aI7664
aI7943
aI8342
aI8350
aI8850
aI8814
aI8879
aI9127
aI9182
aI9289
aI9431
aI9464
aI9822
aI9961
aI10385
aI10913
aI11038
aI12054
aI12681
aI14149
aI15759
aI17196
aI19230
aI21260
aa(lp367
I0
aI0
aI0
aI0
aI0
aI0
aI0
aI0
aI1
aI7
aI47
aI576
aI865
aI3823
aI5772
aI4247
aI3745
aI3905
aI4298
aI4335
aI4496
aI4981
aI5546
aI6585
aI8169
aI8620
aI7869
aI7601
aI7597
aI7806
aI7913
aI8131
aI8661
aI9039
aI9540
aI10086
aI10574
aI10541
aI10541
aI10593
aI10660
aI11214
aI11233
aI11515
aI11980
aI12275
aI12546
aI12584
aI12782
aI13087
aI13193
aI13919
aI14342
aI14292
aI14438
aI15245
aI15413
aI16340
aI16827
aI18657
aa(lp368
I0
aI0
aI0
aI0
aI0
aI0
aI0
aI1
aI0
aI2
aI17
aI125
aI901
aI5399
aI11031
aI8238
aI6945
aI7765
aI8755
aI10117
aI12219
aI14976
aI17701
aI23153
aI26522
aI27709
aI27521
aI29239
aI31540
aI33536
aI36819
aI39805
aI43494
aI48251
aI53266
aI58050
aI62140
aI66984
aI70195
aI74133
aI78186
aI82979
aI88439
aI92641
aI99538
aI104186
aI107824
aI111856
aI115802
aI119459
aI124293
aI127550
aI131522
aI136824
aI140355
aI143862
aI147896
aI152650
aI156693
aI157608
aa(lp369
I0
aI0
aI0
aI0
aI0
aI2
aI2
aI13
aI90
aI658
aI2024
aI1341
aI910
aI425
aI274
aI214
aI250
aI451
aI601
aI751
aI1094
aI1389
aI1411
aI1071
aI814
aI553
aI480
aI433
aI441
aI480
aI490
aI502
aI508
aI544
aI551
aI523
aI440
aI494
aI454
aI517
aI521
aI430
aI436
aI401
aI461
aI492
aI533
aI656
aI773
aI784
aI590
aI499
aI585
aI477
aI448
aI486
aI485
aI480
aI523
aI488
aa(lp370
I0
aI0
aI0
aI0
aI0
aI1
aI0
aI1
aI4
aI7
aI40
aI453
aI3480
aI6686
aI3966
aI3714
aI4038
aI4588
aI4228
aI4029
aI4380
aI5151
aI6142
aI7725
aI7690
aI7969
aI8192
aI8509
aI8773
aI9219
aI9730
aI10352
aI10889
aI11965
aI12821
aI13498
aI13886
aI14152
aI14340
aI14735
aI14999
aI15356
aI16003
aI16777
aI17257
aI17755
aI17845
aI18579
aI19049
aI19616
aI20053
aI20512
aI21072
aI21724
aI22278
aI22582
aI23342
aI23738
aI24254
aI25283
aa(lp371
I0
aI0
aI0
aI0
aI0
aI0
aI1
aI3
aI1
aI14
aI65
aI1622
aI1670
aI4493
aI4354
aI4171
aI4821
aI5920
aI7349
aI8182
aI9636
aI11829
aI14154
aI18393
aI24877
aI24150
aI23600
aI24725
aI27119
aI30760
aI34838
aI37442
aI40483
aI45166
aI50840
aI56273
aI60471
aI64204
aI67014
aI71287
aI75042
aI79541
aI82902
aI85446
aI89501
aI94378
aI100260
aI105389
aI110407
aI113646
aI117595
aI123447
aI127942
aI131274
aI136278
aI140863
aI144765
aI149497
aI152420
aI158184
aa(lp372
I0
aI0
aI0
aI0
aI0
aI4
aI5
aI5
aI3
aI22
aI98
aI488
aI2316
aI5948
aI4509
aI2706
aI2552
aI3015
aI3942
aI4122
aI5432
aI7885
aI8951
aI9852
aI10148
aI9417
aI8805
aI10036
aI9576
aI9977
aI10556
aI11073
aI12285
aI13460
aI14326
aI14664
aI14800
aI15066
aI15168
aI15221
aI16075
aI16824
aI17253
aI18574
aI18681
aI19534
aI20277
aI20698
aI20796
aI21335
aI21888
aI22133
aI23076
aI23224
aI24142
aI25106
aI25805
aI25796
aI26147
aI26630
aa(lp373
I0
aI0
aI0
aI0
aI0
aI10
aI16
aI27
aI36
aI73
aI190
aI1118
aI5283
aI15551
aI13505
aI9370
aI8105
aI8507
aI9560
aI11385
aI13725
aI16154
aI18589
aI20238
aI21556
aI22275
aI22119
aI22407
aI22775
aI24126
aI25495
aI27382
aI29217
aI31487
aI34159
aI35773
aI37535
aI38026
aI38546
aI40109
aI40999
aI42132
aI43953
aI45553
aI47740
aI49499
aI50410
aI51339
aI52789
aI53849
aI55721
aI57330
aI58979
aI60850
aI62235
aI63859
aI66336
aI68415
aI70691
aI71488
aa(lp374
I0
aI0
aI0
aI0
aI0
aI0
aI0
aI1
aI0
aI2
aI1
aI3
aI3
aI21
aI47
aI87
aI140
aI180
aI306
aI346
aI440
aI527
aI617
aI773
aI737
aI832
aI839
aI914
aI894
aI915
aI929
aI1039
aI1127
aI1229
aI1305
aI1493
aI1594
aI1701
aI1734
aI1826
aI1858
aI2014
aI2159
aI2231
aI2281
aI2327
aI2356
aI2714
aI2856
aI2980
aI3024
aI3117
aI3133
aI3285
aI3393
aI3659
aI3924
aI3976
aI4144
aI4414
aa(lp375
I0
aI0
aI0
aI0
aI0
aI0
aI0
aI0
aI0
aI1
aI2
aI4
aI6
aI44
aI37
aI95
aI137
aI159
aI142
aI146
aI221
aI224
aI293
aI363
aI251
aI292
aI260
aI281
aI318
aI392
aI374
aI383
aI429
aI452
aI482
aI526
aI581
aI690
aI701
aI701
aI699
aI812
aI812
aI918
aI907
aI1035
aI984
aI955
aI1049
aI1184
aI1277
aI1283
aI1452
aI1461
aI1562
aI1664
aI1705
aI1660
aI1710
aI1796
aa(lp376
I0
aI0
aI0
aI0
aI0
aI0
aI0
aI0
aI1
aI0
aI4
aI42
aI142
aI510
aI609
aI727
aI802
aI772
aI777
aI885
aI1055
aI1275
aI1646
aI1986
aI2116
aI2084
aI2172
aI2204
aI2213
aI2463
aI2476
aI2666
aI2731
aI2942
aI3382
aI3843
aI3906
aI4064
aI4321
aI4540
aI4791
aI5033
aI5128
aI5542
aI5845
aI6116
aI6489
aI6540
aI6977
aI7071
aI7321
aI7494
aI7496
aI7941
aI8473
aI8517
aI8796
aI9284
aI9165
aI9556
aa(lp377
I0
aI0
aI0
aI0
aI109
aI233
aI1046
aI5308
aI18790
aI22931
aI19577
aI19414
aI30505
aI44025
aI59401
aI78761
aI90949
aI96702
aI105355
aI118424
aI133995
aI152156
aI167867
aI187270
aI211222
aI236276
aI261770
aI281064
aI296563
aI313217
aI332191
aI354784
aI380218
aI410280
aI437220
aI464232
aI493825
aI520725
aI548005
aI571709
aI598960
aI625336
aI657207
aI684000
aI719305
aI755952
aI786162
aI819704
aI853103
aI883685
aI914805
aI945514
aI977246
aI1012973
aI1048868
aI1084860
aI1120239
aI1155958
aI1191898
aI1227525
aa(lp378
I0
aI0
aI0
aI0
aI0
aI0
aI1
aI0
aI0
aI0
aI0
aI0
aI0
aI0
aI2
aI6
aI14
aI90
aI341
aI1039
aI2111
aI2841
aI3251
aI3985
aI4165
aI4684
aI5060
aI5120
aI5799
aI7701
aI7927
aI7479
aI8147
aI9799
aI10564
aI11340
aI12428
aI13488
aI15342
aI17044
aI19331
aI20570
aI21482
aI22333
aI23185
aI24361
aI24868
aI25820
aI26245
aI27533
aI27829
aI29513
aI30861
aI31362
aI32827
aI33541
aI35189
aI36502
aI38008
aI39887
aa(lp379
I0
aI0
aI0
aI0
aI0
aI0
aI0
aI0
aI0
aI1
aI0
aI0
aI15
aI12
aI5
aI7
aI40
aI294
aI1440
aI3524
aI5962
aI9705
aI11042
aI13958
aI14197
aI12238
aI9190
aI7830
aI8325
aI9789
aI10665
aI11327
aI12676
aI14905
aI17369
aI18549
aI19023
aI19037
aI20978
aI23369
aI23824
aI25656
aI27932
aI30635
aI32968
aI35216
aI37935
aI38717
aI39341
aI40246
aI40797
aI43255
aI45118
aI46836
aI48994
aI50319
aI51627
aI52872
aI54409
aI56428
aa(lp380
I0
aI0
aI0
aI0
aI0
aI0
aI0
aI0
aI0
aI0
aI0
aI0
aI0
aI0
aI1
aI1
aI3
aI12
aI56
aI209
aI401
aI586
aI678
aI865
aI858
aI1037
aI1207
aI1402
aI1786
aI2036
aI2210
aI2248
aI2683
aI3049
aI3334
aI3664
aI3731
aI3661
aI3880
aI4510
aI4511
aI4922
aI5292
aI5750
aI6236
aI6332
aI6568
aI7070
aI7443
aI7572
aI7950
aI8332
aI8964
aI9497
aI10007
aI10244
aI10690
aI11559
aI12096
aI12528
aa(lp381
I0
aI0
aI0
aI0
aI0
aI0
aI0
aI0
aI0
aI0
aI0
aI1
aI0
aI1
aI0
aI3
aI1
aI18
aI47
aI139
aI270
aI620
aI920
aI946
aI828
aI696
aI655
aI704
aI918
aI958
aI1052
aI1042
aI1009
aI1063
aI1122
aI1055
aI1092
aI1161
aI1254
aI1378
aI1517
aI1537
aI1692
aI1793
aI1843
aI1803
aI1948
aI1961
aI2079
aI2259
aI2339
aI2559
aI2449
aI2364
aI2599
aI2700
aI2897
aI2905
aI2848
aI2840
aa(lp382
I0
aI0
aI0
aI0
aI0
aI0
aI0
aI0
aI0
aI0
aI0
aI0
aI0
aI1
aI1
aI0
aI5
aI12
aI66
aI154
aI225
aI269
aI391
aI421
aI449
aI574
aI641
aI707
aI714
aI700
aI853
aI1078
aI1261
aI1484
aI1573
aI1569
aI1584
aI1564
aI1589
aI1758
aI1640
aI1595
aI1583
aI1549
aI1620
aI1583
aI1679
aI1772
aI1785
aI1750
aI1628
aI1605
aI1687
aI1741
aI1688
aI1736
aI1790
aI1776
aI1815
aI1915
aa(lp383
I0
aI0
aI0
aI0
aI0
aI0
aI0
aI0
aI0
aI0
aI0
aI0
aI1
aI4
aI3
aI6
aI20
aI40
aI148
aI434
aI1293
aI2656
aI2671
aI2392
aI1995
aI1522
aI1217
aI977
aI1004
aI1004
aI1098
aI1174
aI1411
aI1590
aI1590
aI1801
aI1676
aI1702
aI1503
aI1389
aI1370
aI1408
aI1454
aI1478
aI1418
aI1467
aI1612
aI1600
aI1632
aI1689
aI1594
aI1690
aI1699
aI1687
aI1744
aI1761
aI1910
aI2041
aI2086
aI2102
aa(lp384
I0
aI0
aI0
aI0
aI0
aI0
aI0
aI1
aI3
aI1
aI0
aI1
aI0
aI12
aI35
aI116
aI372
aI1329
aI3543
aI3712
aI2478
aI1642
aI1176
aI963
aI1008
aI1101
aI1335
aI1751
aI2119
aI2052
aI2316
aI2034
aI2509
aI2029
aI1767
aI1634
aI1718
aI1843
aI1807
aI1731
aI1985
aI2008
aI2090
aI2080
aI2083
aI2132
aI2155
aI2089
aI2111
aI2144
aI2078
aI2189
aI2369
aI2454
aI2479
aI2352
aI2435
aI2489
aI2553
aI2333
aa(lp385
I0
aI0
aI0
aI0
aI0
aI0
aI0
aI0
aI0
aI1
aI2
aI0
aI2
aI2
aI6
aI40
aI260
aI2196
aI5433
aI6535
aI6430
aI4916
aI2949
aI1994
aI2272
aI3362
aI4252
aI5677
aI6383
aI6233
aI6511
aI6377
aI6159
aI6000
aI6347
aI6848
aI7883
aI9665
aI10681
aI11620
aI13090
aI14033
aI14097
aI15245
aI15510
aI15374
aI15438
aI16545
aI17912
aI19717
aI21524
aI21502
aI21858
aI22392
aI23220
aI24332
aI25033
aI26120
aI26211
aI26315
aa(lp386
I0
aI0
aI0
aI0
aI0
aI0
aI0
aI1
aI0
aI0
aI5
aI5
aI21
aI59
aI219
aI829
aI2173
aI1231
aI531
aI278
aI164
aI133
aI426
aI420
aI242
aI154
aI158
aI155
aI141
aI124
aI76
aI74
aI66
aI78
aI74
aI62
aI104
aI76
aI56
aI57
aI69
aI57
aI57
aI45
aI35
aI46
aI41
aI40
aI50
aI55
aI51
aI69
aI44
aI47
aI47
aI66
aI66
aI41
aI51
aI58
aa(lp387
I0
aI0
aI0
aI0
aI0
aI0
aI0
aI0
aI1
aI0
aI0
aI1
aI3
aI2
aI18
aI40
aI95
aI200
aI325
aI467
aI654
aI732
aI716
aI750
aI786
aI901
aI1094
aI1367
aI1486
aI1941
aI2137
aI2385
aI2646
aI2785
aI2816
aI2798
aI3249
aI3130
aI3032
aI3013
aI2999
aI3108
aI2961
aI2823
aI2938
aI3047
aI2868
aI3068
aI3026
aI3175
aI3308
aI3358
aI3453
aI3392
aI3456
aI3466
aI3314
aI3572
aI3706
aI3744
aa(lp388
I0
aI0
aI0
aI0
aI0
aI0
aI0
aI1
aI3
aI1
aI1
aI2
aI2
aI9
aI20
aI37
aI78
aI174
aI291
aI481
aI759
aI1200
aI1550
aI2020
aI3214
aI4129
aI4590
aI5121
aI6996
aI8980
aI8846
aI7122
aI5965
aI6168
aI6680
aI7642
aI8517
aI8517
aI8710
aI9252
aI10549
aI11526
aI12626
aI12933
aI14157
aI14975
aI15289
aI15492
aI16425
aI17350
aI18378
aI19239
aI21049
aI21882
aI22653
aI23722
aI23848
aI24864
aI25518
aI25923
aa(lp389
I0
aI0
aI0
aI0
aI0
aI1
aI2
aI16
aI13
aI3
aI2
aI2
aI11
aI12
aI34
aI114
aI433
aI1458
aI2312
aI2037
aI1247
aI1033
aI1233
aI1078
aI1285
aI1209
aI1479
aI1337
aI1342
aI1364
aI1735
aI1815
aI1658
aI1570
aI1579
aI1514
aI1704
aI1923
aI2313
aI2560
aI2579
aI2734
aI2779
aI2755
aI2751
aI2647
aI2646
aI2727
aI2897
aI3084
aI3216
aI3193
aI3249
aI3544
aI3636
aI3443
aI3416
aI3608
aI4051
aI4091
aa(lp390
I0
aI0
aI0
aI0
aI0
aI1
aI0
aI2
aI1
aI1
aI4
aI4
aI7
aI31
aI86
aI302
aI1100
aI3073
aI6326
aI5673
aI3909
aI2914
aI2568
aI2321
aI2398
aI2611
aI3520
aI3677
aI4190
aI4610
aI4516
aI4389
aI4328
aI4111
aI4355
aI4521
aI4968
aI5468
aI6172
aI6683
aI6843
aI7203
aI7109
aI6794
aI6516
aI6454
aI6616
aI6865
aI7033
aI7395
aI7769
aI7775
aI8163
aI8482
aI8636
aI8781
aI8696
aI8963
aI8740
aI8869
aa(lp391
I0
aI0
aI0
aI0
aI0
aI0
aI0
aI0
aI0
aI0
aI0
aI0
aI2
aI0
aI1
aI1
aI1
aI3
aI3
aI6
aI9
aI9
aI14
aI26
aI27
aI62
aI74
aI73
aI88
aI81
aI109
aI112
aI123
aI130
aI120
aI170
aI204
aI228
aI273
aI284
aI266
aI311
aI305
aI284
aI330
aI267
aI372
aI384
aI425
aI435
aI457
aI442
aI519
aI596
aI639
aI618
aI645
aI621
aI744
aI749
aa(lp392
I0
aI0
aI0
aI0
aI0
aI0
aI0
aI0
aI0
aI0
aI0
aI0
aI0
aI0
aI0
aI0
aI3
aI17
aI5
aI11
aI49
aI41
aI25
aI26
aI35
aI44
aI66
aI54
aI53
aI57
aI29
aI33
aI49
aI92
aI117
aI117
aI93
aI119
aI155
aI153
aI148
aI165
aI209
aI241
aI174
aI175
aI232
aI206
aI230
aI245
aI217
aI237
aI186
aI246
aI292
aI338
aI275
aI282
aI341
aI366
aa(lp393
I0
aI0
aI0
aI0
aI0
aI0
aI0
aI0
aI0
aI0
aI0
aI0
aI0
aI0
aI1
aI3
aI8
aI36
aI75
aI81
aI122
aI132
aI176
aI168
aI177
aI185
aI295
aI439
aI484
aI548
aI481
aI423
aI381
aI426
aI450
aI465
aI479
aI546
aI574
aI607
aI685
aI681
aI719
aI791
aI831
aI926
aI893
aI968
aI1162
aI1207
aI1224
aI1248
aI1245
aI1179
aI1225
aI1301
aI1438
aI1439
aI1597
aI1586
aa(lp394
I0
aI0
aI0
aI0
aI0
aI2
aI8
aI19
aI16
aI30
aI142
aI686
aI3240
aI12912
aI20731
aI17294
aI14768
aI15237
aI17176
aI19878
aI23112
aI26241
aI28092
aI28471
aI30002
aI32657
aI37365
aI40652
aI44446
aI47619
aI51307
aI55233
aI59824
aI61868
aI64295
aI68024
aI75087
aI82024
aI87622
aI93571
aI98106
aI102447
aI105428
aI109731
aI113979
aI118074
aI123330
aI126462
aI133188
aI140126
aI145563
aI150893
aI156889
aI161080
aI167630
aI172896
aI178681
aI183666
aI189758
aI196380
aa(lp395
I0
aI0
aI0
aI0
aI0
aI0
aI0
aI0
aI0
aI0
aI1
aI0
aI1
aI0
aI1
aI16
aI62
aI229
aI598
aI884
aI1000
aI1106
aI1156
aI1272
aI1504
aI1652
aI1595
aI1476
aI1621
aI1846
aI1851
aI2008
aI2199
aI2448
aI2597
aI2741
aI2859
aI2742
aI3025
aI3221
aI3478
aI3606
aI3926
aI3941
aI4280
aI4336
aI4504
aI4839
aI5326
aI5654
aI5908
aI6009
aI6212
aI6525
aI6859
aI7299
aI7503
aI7770
aI7593
aI8131
aa(lp396
I0
aI0
aI0
aI0
aI0
aI0
aI0
aI0
aI0
aI0
aI0
aI0
aI0
aI2
aI7
aI8
aI45
aI186
aI385
aI567
aI614
aI734
aI873
aI1136
aI1325
aI1368
aI1667
aI1784
aI2153
aI2350
aI2389
aI2560
aI2636
aI2904
aI3158
aI3565
aI4214
aI4435
aI4583
aI5021
aI5557
aI5672
aI6072
aI6605
aI6784
aI7015
aI7299
aI7554
aI7707
aI8093
aI8608
aI8522
aI9062
aI9494
aI9485
aI9864
aI10168
aI10282
aI10366
aI10391
aa(lp397
I0
aI0
aI0
aI0
aI0
aI0
aI0
aI0
aI0
aI0
aI0
aI0
aI1
aI0
aI4
aI2
aI55
aI175
aI350
aI491
aI554
aI574
aI595
aI664
aI819
aI881
aI1020
aI886
aI912
aI1051
aI1087
aI1184
aI1104
aI1154
aI1274
aI1377
aI1364
aI1296
aI1260
aI1349
aI1485
aI1541
aI1657
aI1609
aI1597
aI1595
aI1734
aI1753
aI1597
aI1739
aI1833
aI1973
aI1935
aI1906
aI1992
aI2097
aI2278
aI2466
aI2418
aI2618
aa(lp398
I0
aI0
aI0
aI0
aI0
aI0
aI0
aI0
aI0
aI0
aI0
aI0
aI0
aI0
aI3
aI12
aI34
aI57
aI125
aI139
aI137
aI148
aI176
aI205
aI207
aI249
aI193
aI213
aI287
aI254
aI237
aI305
aI328
aI218
aI306
aI283
aI284
aI276
aI304
aI382
aI348
aI384
aI360
aI424
aI426
aI390
aI392
aI413
aI437
aI466
aI478
aI589
aI550
aI510
aI621
aI550
aI586
aI552
aI597
aI635
aa(lp399
I0
aI0
aI0
aI0
aI0
aI0
aI0
aI0
aI0
aI0
aI0
aI0
aI1
aI0
aI0
aI0
aI11
aI13
aI20
aI23
aI35
aI59
aI65
aI58
aI90
aI82
aI68
aI79
aI100
aI103
aI92
aI140
aI146
aI149
aI207
aI160
aI169
aI141
aI142
aI195
aI185
aI195
aI200
aI188
aI240
aI267
aI288
aI404
aI339
aI341
aI338
aI340
aI391
aI427
aI392
aI334
aI329
aI357
aI376
aI406
aa(lp400
I0
aI0
aI0
aI0
aI0
aI0
aI0
aI0
aI0
aI0
aI0
aI0
aI0
aI0
aI0
aI5
aI28
aI48
aI81
aI87
aI79
aI81
aI74
aI81
aI86
aI98
aI101
aI133
aI121
aI111
aI114
aI136
aI156
aI212
aI183
aI202
aI176
aI187
aI166
aI185
aI199
aI233
aI257
aI285
aI269
aI272
aI290
aI243
aI261
aI331
aI278
aI296
aI335
aI354
aI412
aI401
aI356
aI446
aI419
aI515
aa(lp401
I0
aI0
aI0
aI0
aI0
aI0
aI0
aI0
aI0
aI0
aI0
aI0
aI0
aI0
aI7
aI24
aI37
aI47
aI69
aI52
aI76
aI64
aI78
aI97
aI89
aI99
aI104
aI123
aI128
aI144
aI152
aI171
aI156
aI173
aI185
aI232
aI233
aI214
aI247
aI279
aI326
aI293
aI302
aI334
aI301
aI288
aI344
aI335
aI362
aI371
aI398
aI409
aI390
aI392
aI396
aI434
aI434
aI480
aI477
aI498
aa(lp402
I0
aI0
aI0
aI0
aI0
aI0
aI0
aI0
aI0
aI0
aI0
aI1
aI0
aI0
aI6
aI33
aI78
aI132
aI211
aI255
aI245
aI277
aI324
aI449
aI452
aI532
aI777
aI890
aI931
aI1072
aI1134
aI1228
aI1260
aI1444
aI1728
aI2084
aI2165
aI2209
aI2289
aI2529
aI2529
aI2759
aI2949
aI2959
aI3268
aI3421
aI3295
aI3827
aI3944
aI3898
aI4098
aI4229
aI4253
aI4470
aI4725
aI4678
aI4689
aI4915
aI4812
aI4895
aa(lp403
I0
aI0
aI0
aI0
aI0
aI0
aI0
aI0
aI0
aI0
aI3
aI5
aI2
aI13
aI6
aI3
aI2
aI2
aI10
aI19
aI9
aI9
aI10
aI20
aI16
aI39
aI17
aI11
aI17
aI13
aI7
aI5
aI16
aI8
aI11
aI10
aI9
aI3
aI12
aI10
aI36
aI56
aI46
aI33
aI10
aI19
aI18
aI11
aI8
aI31
aI13
aI11
aI13
aI14
aI10
aI16
aI17
aI18
aI18
aI15
aa(lp404
I0
aI0
aI0
aI0
aI0
aI0
aI0
aI0
aI0
aI0
aI0
aI1
aI2
aI4
aI3
aI16
aI35
aI46
aI46
aI58
aI73
aI101
aI120
aI131
aI144
aI173
aI186
aI233
aI227
aI249
aI260
aI219
aI240
aI267
aI285
aI340
aI320
aI339
aI311
aI358
aI404
aI380
aI455
aI577
aI568
aI506
aI539
aI574
aI541
aI567
aI599
aI617
aI718
aI680
aI710
aI677
aI672
aI719
aI854
aI755
aa(lp405
I0
aI0
aI0
aI0
aI0
aI0
aI0
aI0
aI0
aI0
aI0
aI0
aI0
aI3
aI13
aI44
aI97
aI201
aI292
aI266
aI391
aI347
aI329
aI386
aI564
aI551
aI556
aI635
aI747
aI756
aI845
aI900
aI1021
aI1179
aI1350
aI1549
aI1743
aI2095
aI2284
aI2273
aI2483
aI2717
aI2634
aI2770
aI3041
aI3070
aI3308
aI3419
aI3500
aI3692
aI3932
aI3947
aI4207
aI4297
aI4221
aI4531
aI4388
aI4507
aI4683
aI4762
aa(lp406
I0
aI0
aI0
aI0
aI0
aI0
aI0
aI0
aI0
aI0
aI0
aI1
aI1
aI7
aI27
aI66
aI115
aI134
aI93
aI135
aI140
aI126
aI152
aI158
aI195
aI277
aI257
aI234
aI235
aI202
aI229
aI298
aI286
aI292
aI290
aI322
aI337
aI433
aI355
aI395
aI399
aI372
aI401
aI384
aI437
aI482
aI442
aI533
aI590
aI587
aI577
aI594
aI605
aI654
aI640
aI632
aI680
aI707
aI717
aI798
aa(lp407
I0
aI0
aI0
aI0
aI0
aI1
aI1
aI4
aI1
aI3
aI6
aI8
aI4
aI14
aI31
aI93
aI128
aI205
aI314
aI328
aI306
aI259
aI299
aI304
aI316
aI383
aI390
aI474
aI448
aI454
aI494
aI577
aI620
aI632
aI727
aI761
aI844
aI913
aI861
aI901
aI941
aI989
aI1006
aI1078
aI1182
aI1286
aI1353
aI1287
aI1327
aI1390
aI1416
aI1553
aI1654
aI1645
aI1802
aI1764
aI1805
aI1896
aI1989
aI2077
aa(lp408
I0
aI0
aI0
aI0
aI0
aI0
aI0
aI0
aI0
aI0
aI0
aI0
aI0
aI0
aI0
aI0
aI3
aI17
aI28
aI37
aI34
aI31
aI25
aI46
aI40
aI45
aI42
aI48
aI60
aI54
aI66
aI66
aI56
aI51
aI48
aI51
aI67
aI63
aI63
aI57
aI53
aI96
aI99
aI95
aI100
aI82
aI112
aI108
aI149
aI132
aI135
aI141
aI120
aI112
aI148
aI160
aI164
aI218
aI196
aI173
aa(lp409
I0
aI0
aI0
aI0
aI0
aI0
aI0
aI0
aI0
aI0
aI0
aI1
aI0
aI0
aI0
aI0
aI4
aI4
aI30
aI19
aI11
aI6
aI5
aI18
aI12
aI15
aI17
aI12
aI11
aI14
aI6
aI15
aI42
aI38
aI21
aI21
aI25
aI24
aI26
aI40
aI55
aI44
aI34
aI31
aI41
aI51
aI50
aI53
aI37
aI42
aI30
aI33
aI40
aI57
aI58
aI51
aI48
aI54
aI47
aI50
aa(lp410
I0
aI0
aI0
aI0
aI0
aI0
aI0
aI0
aI0
aI0
aI0
aI0
aI0
aI0
aI0
aI5
aI6
aI19
aI35
aI41
aI44
aI42
aI58
aI70
aI71
aI77
aI72
aI65
aI101
aI91
aI101
aI102
aI83
aI118
aI139
aI116
aI93
aI109
aI117
aI122
aI115
aI171
aI185
aI176
aI179
aI232
aI175
aI182
aI230
aI200
aI200
aI268
aI292
aI241
aI236
aI248
aI288
aI227
aI278
aI271
aa(lp411
I0
aI0
aI0
aI0
aI0
aI0
aI10
aI7
aI9
aI16
aI80
aI189
aI337
aI660
aI1302
aI1913
aI2301
aI2608
aI3013
aI3205
aI3755
aI4214
aI5056
aI5480
aI5881
aI6498
aI7394
aI7954
aI8653
aI9246
aI9833
aI10646
aI11455
aI12599
aI13440
aI13863
aI14522
aI14993
aI16426
aI17264
aI18168
aI19088
aI20097
aI21002
aI21934
aI23030
aI23913
aI24872
aI26300
aI27520
aI28601
aI29374
aI30748
aI32196
aI33235
aI34084
aI34992
aI36535
aI37620
aI38529
aa(lp412
I0
aI0
aI0
aI0
aI0
aI0
aI0
aI0
aI3
aI4
aI1
aI0
aI0
aI7
aI8
aI21
aI57
aI134
aI276
aI393
aI435
aI525
aI525
aI603
aI678
aI687
aI741
aI708
aI753
aI790
aI930
aI1043
aI1131
aI1297
aI1272
aI1368
aI1463
aI1518
aI1600
aI1585
aI1686
aI1785
aI1949
aI1893
aI1983
aI1964
aI1990
aI2115
aI2324
aI2647
aI2887
aI2769
aI3010
aI3238
aI3181
aI3336
aI3694
aI3949
aI3971
aI3901
aa(lp413
I0
aI0
aI0
aI0
aI0
aI0
aI0
aI0
aI8
aI7
aI0
aI0
aI3
aI21
aI44
aI179
aI172
aI336
aI486
aI506
aI589
aI680
aI674
aI673
aI830
aI819
aI845
aI1012
aI1014
aI1102
aI1204
aI1282
aI1276
aI1524
aI1522
aI1965
aI2135
aI2182
aI2436
aI2484
aI2554
aI2632
aI2936
aI3148
aI3080
aI3308
aI3485
aI3591
aI3625
aI3852
aI3777
aI4040
aI4238
aI4619
aI4826
aI4892
aI4958
aI4861
aI5079
aI5281
aa(lp414
I0
aI0
aI0
aI0
aI0
aI0
aI0
aI0
aI0
aI1
aI0
aI0
aI0
aI1
aI3
aI9
aI33
aI53
aI133
aI216
aI191
aI144
aI213
aI228
aI283
aI384
aI467
aI362
aI412
aI439
aI501
aI598
aI614
aI611
aI590
aI679
aI732
aI695
aI752
aI736
aI768
aI935
aI1023
aI904
aI886
aI856
aI861
aI909
aI932
aI935
aI1074
aI989
aI947
aI1013
aI1138
aI1105
aI1118
aI1204
aI1264
aI1392
aa(lp415
I0
aI0
aI0
aI0
aI0
aI0
aI0
aI0
aI0
aI0
aI0
aI0
aI1
aI1
aI7
aI9
aI30
aI46
aI53
aI83
aI94
aI69
aI92
aI82
aI112
aI108
aI125
aI117
aI120
aI115
aI139
aI207
aI191
aI126
aI134
aI171
aI166
aI177
aI211
aI218
aI212
aI257
aI204
aI217
aI186
aI202
aI198
aI249
aI290
aI264
aI235
aI253
aI266
aI226
aI257
aI279
aI287
aI325
aI355
aI286
aa(lp416
I0
aI0
aI0
aI0
aI0
aI0
aI0
aI0
aI0
aI0
aI0
aI0
aI0
aI2
aI1
aI2
aI10
aI12
aI39
aI48
aI44
aI24
aI41
aI48
aI49
aI37
aI29
aI22
aI50
aI47
aI51
aI60
aI71
aI89
aI66
aI82
aI80
aI74
aI80
aI87
aI122
aI110
aI100
aI89
aI97
aI115
aI109
aI104
aI98
aI125
aI154
aI176
aI154
aI142
aI154
aI166
aI144
aI157
aI214
aI238
aa(lp417
I0
aI0
aI0
aI0
aI0
aI0
aI0
aI0
aI0
aI0
aI0
aI0
aI0
aI0
aI0
aI5
aI18
aI42
aI88
aI95
aI113
aI90
aI67
aI87
aI87
aI80
aI74
aI62
aI60
aI64
aI79
aI96
aI73
aI72
aI76
aI86
aI89
aI100
aI122
aI123
aI105
aI100
aI130
aI199
aI195
aI148
aI140
aI159
aI151
aI148
aI148
aI143
aI196
aI263
aI305
aI258
aI272
aI290
aI287
aI340
aa(lp418
I0
aI0
aI0
aI0
aI0
aI0
aI0
aI0
aI0
aI0
aI0
aI0
aI1
aI11
aI36
aI57
aI74
aI77
aI72
aI71
aI61
aI66
aI58
aI53
aI76
aI88
aI73
aI87
aI85
aI105
aI80
aI106
aI121
aI135
aI142
aI163
aI120
aI166
aI151
aI206
aI184
aI160
aI153
aI173
aI185
aI199
aI218
aI224
aI223
aI246
aI292
aI250
aI235
aI223
aI237
aI261
aI300
aI301
aI274
aI289
aa(lp419
I0
aI0
aI0
aI0
aI0
aI0
aI0
aI0
aI0
aI0
aI0
aI0
aI0
aI7
aI26
aI56
aI135
aI160
aI179
aI241
aI230
aI224
aI285
aI282
aI312
aI434
aI439
aI492
aI525
aI615
aI683
aI626
aI700
aI771
aI802
aI847
aI1050
aI971
aI992
aI1057
aI1083
aI1175
aI1514
aI1675
aI1617
aI1767
aI1799
aI1773
aI1940
aI2181
aI1988
aI2102
aI2081
aI2071
aI2208
aI2205
aI2293
aI2346
aI2434
aI2641
aa(lp420
I0
aI0
aI0
aI0
aI0
aI0
aI0
aI0
aI2
aI3
aI19
aI96
aI46
aI5
aI2
aI3
aI4
aI5
aI6
aI2
aI8
aI21
aI20
aI14
aI18
aI11
aI9
aI7
aI7
aI3
aI3
aI5
aI12
aI1
aI3
aI2
aI2
aI3
aI6
aI2
aI6
aI7
aI3
aI20
aI7
aI11
aI3
aI3
aI1
aI5
aI7
aI12
aI6
aI7
aI8
aI6
aI8
aI14
aI17
aI12
aa(lp421
I0
aI0
aI0
aI0
aI0
aI0
aI0
aI0
aI0
aI0
aI0
aI0
aI1
aI6
aI15
aI40
aI25
aI33
aI40
aI44
aI55
aI82
aI68
aI57
aI73
aI65
aI69
aI104
aI108
aI101
aI116
aI119
aI118
aI128
aI137
aI150
aI186
aI173
aI193
aI151
aI187
aI178
aI195
aI213
aI234
aI270
aI274
aI256
aI197
aI264
aI237
aI242
aI252
aI265
aI297
aI306
aI370
aI387
aI408
aI436
aa(lp422
I0
aI0
aI0
aI0
aI0
aI0
aI0
aI0
aI0
aI0
aI0
aI0
aI3
aI28
aI19
aI37
aI69
aI102
aI134
aI147
aI161
aI164
aI221
aI231
aI298
aI293
aI368
aI429
aI392
aI453
aI462
aI506
aI619
aI604
aI703
aI768
aI931
aI1058
aI1034
aI1077
aI1144
aI1365
aI1336
aI1324
aI1457
aI1507
aI1522
aI1617
aI1805
aI1778
aI1870
aI1941
aI2150
aI2361
aI2135
aI2072
aI2264
aI2273
aI2292
aI2363
aa(lp423
I0
aI0
aI0
aI0
aI0
aI0
aI0
aI0
aI1
aI1
aI2
aI2
aI2
aI32
aI52
aI102
aI108
aI61
aI45
aI75
aI97
aI95
aI125
aI106
aI116
aI145
aI121
aI97
aI97
aI118
aI119
aI132
aI156
aI142
aI159
aI133
aI181
aI203
aI218
aI227
aI183
aI198
aI213
aI201
aI233
aI251
aI243
aI249
aI267
aI276
aI264
aI283
aI267
aI281
aI266
aI327
aI337
aI328
aI333
aI317
aa(lp424
I0
aI0
aI0
aI0
aI0
aI0
aI1
aI0
aI0
aI0
aI2
aI5
aI8
aI38
aI78
aI96
aI157
aI145
aI122
aI177
aI191
aI161
aI145
aI168
aI169
aI170
aI229
aI229
aI244
aI244
aI261
aI283
aI282
aI338
aI376
aI425
aI462
aI439
aI472
aI486
aI509
aI506
aI488
aI535
aI570
aI620
aI646
aI743
aI760
aI782
aI777
aI849
aI816
aI837
aI963
aI960
aI978
aI975
aI1039
aI975
aa(lp425
I0
aI0
aI0
aI0
aI0
aI0
aI0
aI0
aI0
aI0
aI0
aI0
aI0
aI0
aI2
aI11
aI17
aI8
aI14
aI13
aI17
aI12
aI26
aI14
aI21
aI14
aI16
aI24
aI39
aI21
aI36
aI23
aI16
aI31
aI21
aI31
aI31
aI42
aI42
aI42
aI56
aI36
aI31
aI38
aI39
aI43
aI38
aI36
aI62
aI91
aI78
aI50
aI65
aI55
aI49
aI53
aI69
aI76
aI74
aI117
aa(lp426
I0
aI0
aI0
aI0
aI0
aI0
aI0
aI1
aI1
aI15
aI170
aI30
aI28
aI23
aI27
aI30
aI43
aI35
aI50
aI31
aI38
aI33
aI18
aI27
aI15
aI15
aI9
aI5
aI8
aI13
aI14
aI25
aI22
aI9
aI6
aI12
aI17
aI23
aI26
aI20
aI28
aI18
aI14
aI21
aI16
aI19
aI9
aI15
aI17
aI27
aI36
aI33
aI35
aI32
aI27
aI40
aI45
aI37
aI43
aI42
aa(lp427
I0
aI0
aI0
aI0
aI0
aI0
aI0
aI0
aI0
aI1
aI0
aI0
aI3
aI1
aI12
aI19
aI40
aI67
aI55
aI40
aI30
aI28
aI35
aI44
aI46
aI41
aI41
aI47
aI61
aI71
aI55
aI63
aI44
aI46
aI44
aI43
aI43
aI54
aI54
aI55
aI77
aI82
aI84
aI69
aI69
aI79
aI102
aI129
aI128
aI124
aI115
aI128
aI122
aI112
aI112
aI144
aI142
aI117
aI165
aI137
aa(lp428
I0
aI0
aI0
aI0
aI0
aI4
aI75
aI16
aI34
aI74
aI153
aI254
aI402
aI693
aI1065
aI1360
aI1441
aI1540
aI1693
aI1932
aI2060
aI2285
aI2767
aI2906
aI3144
aI3455
aI3702
aI4218
aI4482
aI4783
aI5205
aI5578
aI5950
aI6542
aI6897
aI7260
aI7446
aI7772
aI7942
aI8247
aI8930
aI9812
aI10328
aI10573
aI10873
aI11366
aI11891
aI12374
aI13041
aI13277
aI13878
aI14546
aI15082
aI16195
aI16680
aI17057
aI17530
aI18142
aI18716
aI18908
aa(lp429
I0
aI0
aI0
aI0
aI0
aI149
aI80
aI26
aI34
aI94
aI329
aI1531
aI6100
aI17328
aI37346
aI60268
aI81956
aI101554
aI122098
aI147044
aI170520
aI195292
aI218871
aI243068
aI266916
aI291440
aI316700
aI345461
aI372951
aI401692
aI429558
aI457200
aI490290
aI521687
aI555861
aI592995
aI627696
aI664601
aI703337
aI744525
aI791976
aI839428
aI881636
aI932137
aI977393
aI1024849
aI1069039
aI1116701
aI1164984
aI1213383
aI1262917
aI1315191
aI1365864
aI1414216
aI1465557
aI1518243
aI1573104
aI1628407
aI1683959
aI1737409
aa(lp430
I0
aI0
aI0
aI0
aI0
aI103
aI1088
aI354
aI326
aI600
aI1510
aI2690
aI9188
aI20827
aI38944
aI58046
aI77870
aI98455
aI120405
aI146152
aI170793
aI200001
aI229154
aI254641
aI284505
aI315898
aI353482
aI393459
aI434758
aI481461
aI535399
aI586094
aI640549
aI694447
aI747440
aI804409
aI866063
aI931853
aI996779
aI1064287
aI1130513
aI1202070
aI1271370
aI1339916
aI1405047
aI1472376
aI1543741
aI1608045
aI1675064
aI1741833
aI1807684
aI1869897
aI1930609
aI1982636
aI2042624
aI2095849
aI2150244
aI2202421
aI2253010
aI2300116
aa(lp431
I0
aI0
aI0
aI0
aI0
aI15
aI13
aI7
aI16
aI49
aI189
aI1124
aI5335
aI16340
aI30839
aI43667
aI52244
aI60752
aI68873
aI79114
aI90470
aI102397
aI114394
aI125923
aI136950
aI148601
aI163379
aI176145
aI189450
aI199248
aI207598
aI217935
aI226697
aI236069
aI245733
aI253820
aI263645
aI274356
aI284983
aI296269
aI304174
aI314133
aI325468
aI336741
aI346034
aI358110
aI369456
aI382750
aI393571
aI406676
aI418882
aI433654
aI447525
aI461821
aI477442
aI494236
aI509694
aI526068
aI541042
aI556559
aa(lp432
I0
aI0
aI0
aI0
aI0
aI0
aI0
aI2
aI6
aI33
aI90
aI435
aI1922
aI5191
aI8925
aI11755
aI14429
aI16262
aI18810
aI22222
aI24721
aI27861
aI30269
aI32687
aI35399
aI38046
aI41389
aI44507
aI47478
aI50453
aI53252
aI55780
aI58361
aI60662
aI62734
aI65029
aI66919
aI69908
aI71947
aI74528
aI77132
aI78867
aI81419
aI83550
aI85929
aI89075
aI91312
aI93293
aI96882
aI98152
aI101468
aI103445
aI106937
aI109253
aI111866
aI116269
aI119017
aI121695
aI125709
aI130364
aa(lp433
I0
aI0
aI0
aI0
aI0
aI0
aI0
aI3
aI6
aI68
aI458
aI2382
aI6644
aI7993
aI6424
aI6663
aI7813
aI8795
aI9945
aI11079
aI12487
aI13747
aI14400
aI14787
aI16634
aI18702
aI20579
aI22545
aI24658
aI26858
aI28421
aI29218
aI30392
aI32185
aI33934
aI34511
aI36667
aI39027
aI40847
aI43464
aI46015
aI47202
aI48970
aI50212
aI52250
aI53818
aI56172
aI58330
aI60106
aI61898
aI64041
aI66290
aI68749
aI70704
aI72874
aI75175
aI76718
aI78556
aI81350
aI83237
aa(lp434
I0
aI0
aI0
aI0
aI0
aI0
aI9
aI8
aI11
aI34
aI140
aI338
aI1005
aI2450
aI4374
aI5811
aI7404
aI9385
aI11452
aI13591
aI15796
aI17622
aI19602
aI20680
aI22192
aI24251
aI26616
aI29522
aI32545
aI34978
aI36759
aI37406
aI38959
aI40563
aI41278
aI43362
aI44780
aI46066
aI47689
aI49373
aI51667
aI52852
aI54729
aI55564
aI57416
aI59235
aI61355
aI62229
aI64271
aI67136
aI69725
aI73868
aI78678
aI84908
aI91030
aI98270
aI105539
aI115013
aI125726
aI137485
aa(lp435
I0
aI0
aI0
aI0
aI0
aI9
aI1
aI12
aI57
aI227
aI1011
aI1756
aI3169
aI5055
aI7122
aI9886
aI12381
aI13450
aI14682
aI16439
aI18102
aI20447
aI23257
aI26978
aI29226
aI31719
aI34957
aI37603
aI39751
aI41949
aI43138
aI44671
aI47259
aI49281
aI50937
aI53090
aI55088
aI56670
aI58756
aI61209
aI62711
aI64638
aI66545
aI68834
aI70270
aI71781
aI74541
aI77132
aI78815
aI80757
aI82443
aI85453
aI87710
aI89995
aI93728
aI98744
aI103833
aI110525
aI117492
aI127234
aa(lp436
I0
aI0
aI0
aI0
aI0
aI2
aI1
aI13
aI17
aI113
aI608
aI2360
aI5177
aI10235
aI17405
aI25828
aI34692
aI44328
aI52924
aI63273
aI74040
aI85150
aI98343
aI112698
aI129303
aI146659
aI167548
aI186924
aI205043
aI229265
aI251473
aI274256
aI298434
aI325333
aI354062
aI383048
aI410572
aI438701
aI467931
aI501245
aI536281
aI569288
aI601812
aI637738
aI671493
aI701039
aI732075
aI759621
aI788168
aI818012
aI846866
aI875665
aI908485
aI933746
aI961150
aI988153
aI1011892
aI1032774
aI1055163
aI1076546
aa(lp437
I0
aI0
aI0
aI0
aI6
aI18
aI27
aI123
aI124
aI148
aI252
aI761
aI942
aI997
aI1065
aI1069
aI1165
aI1275
aI1596
aI1710
aI1753
aI1960
aI2296
aI2800
aI3019
aI3056
aI2812
aI2976
aI3008
aI3146
aI3238
aI3412
aI3356
aI3460
aI3492
aI3476
aI3591
aI3510
aI3718
aI3927
aI3988
aI3897
aI3690
aI3707
aI3598
aI3477
aI3577
aI3606
aI3707
aI3569
aI3655
aI3626
aI3815
aI3660
aI3560
aI3532
aI3575
aI3624
aI3729
aI3766
aa(lp438
I0
aI0
aI0
aI0
aI7
aI25
aI184
aI1855
aI7385
aI6470
aI4333
aI5405
aI8801
aI12928
aI15410
aI16561
aI17124
aI18222
aI19282
aI20632
aI22924
aI26542
aI30922
aI32765
aI36395
aI40789
aI43296
aI45750
aI48400
aI50441
aI52395
aI55481
aI59510
aI63488
aI66757
aI71334
aI75256
aI78834
aI80653
aI83790
aI87420
aI90054
aI92931
aI97204
aI102121
aI105608
aI108913
aI113018
aI116632
aI121279
aI124751
aI126931
aI131754
aI135465
aI138944
aI143257
aI147670
aI150896
aI154997
aI159064
aa(lp439
I0
aI0
aI0
aI0
aI3
aI26
aI128
aI1010
aI4840
aI7845
aI7821
aI11321
aI17879
aI22841
aI26444
aI30297
aI34214
aI38012
aI43382
aI50595
aI60198
aI71095
aI83482
aI96876
aI111427
aI126371
aI145371
aI163544
aI182752
aI203713
aI228959
aI253227
aI281143
aI308101
aI336838
aI362852
aI390919
aI417926
aI443541
aI472636
aI501751
aI530199
aI559424
aI593077
aI625330
aI656835
aI685239
aI715978
aI748761
aI779313
aI813024
aI843439
aI873685
aI900795
aI930367
aI961219
aI986267
aI1010795
aI1040725
aI1065566
aa(lp440
I0
aI0
aI0
aI0
aI1
aI19
aI49
aI253
aI1052
aI2027
aI5484
aI5946
aI10149
aI13278
aI13752
aI15653
aI18382
aI18968
aI21425
aI25130
aI28511
aI32452
aI34886
aI39273
aI43923
aI47351
aI50477
aI54005
aI56197
aI58967
aI62338
aI65331
aI68112
aI71680
aI74967
aI79158
aI82489
aI86456
aI89691
aI93471
aI96536
aI99601
aI104557
aI108539
aI112233
aI115965
aI120288
aI124830
aI128577
aI131020
aI135164
aI139667
aI144708
aI147943
aI151892
aI155595
aI159972
aI165586
aI169681
aI172624
aa(lp441
I0
aI0
aI0
aI0
aI11
aI81
aI165
aI740
aI3193
aI5151
aI6002
aI9953
aI16700
aI25769
aI35416
aI43911
aI48993
aI52378
aI53728
aI56213
aI60480
aI67088
aI76474
aI84523
aI91696
aI101943
aI111965
aI120710
aI127469
aI133515
aI140545
aI148370
aI156243
aI164492
aI173519
aI183914
aI192297
aI199912
aI206819
aI213977
aI224114
aI233257
aI243116
aI252381
aI262442
aI271642
aI282914
aI294863
aI303629
aI315078
aI325066
aI333775
aI345125
aI356619
aI368545
aI379607
aI391828
aI402776
aI417289
aI428686
aa(lp442
I0
aI0
aI0
aI0
aI0
aI0
aI7
aI5
aI3
aI8
aI22
aI120
aI338
aI981
aI1850
aI2473
aI2832
aI3168
aI3518
aI3887
aI4301
aI5139
aI5895
aI6277
aI6946
aI7670
aI8065
aI8414
aI8799
aI9513
aI10251
aI10826
aI11536
aI12224
aI13032
aI13646
aI14465
aI15174
aI15482
aI15760
aI15920
aI16303
aI16892
aI17371
aI18947
aI19904
aI20834
aI21548
aI22360
aI22969
aI23911
aI25448
aI26300
aI27064
aI27744
aI28844
aI29305
aI30929
aI31747
aI32372
aa(lp443
I0
aI0
aI0
aI0
aI0
aI0
aI67
aI12
aI7
aI12
aI34
aI227
aI306
aI562
aI899
aI1140
aI1315
aI1195
aI1282
aI1451
aI1475
aI1572
aI1838
aI2152
aI2110
aI2301
aI2405
aI2725
aI2789
aI3008
aI3160
aI3324
aI3564
aI3848
aI4095
aI4369
aI4475
aI4654
aI4695
aI5083
aI5368
aI5752
aI5973
aI6342
aI6759
aI6931
aI7096
aI7562
aI7835
aI8243
aI8584
aI8965
aI9189
aI9122
aI9551
aI10221
aI10680
aI11058
aI11667
aI12180
aa(lp444
I0
aI0
aI0
aI0
aI0
aI0
aI8
aI29
aI213
aI350
aI274
aI357
aI682
aI1243
aI1823
aI2304
aI3001
aI3668
aI4167
aI5148
aI6220
aI7138
aI8456
aI9740
aI10775
aI11940
aI12950
aI14146
aI14762
aI16106
aI17525
aI18813
aI19872
aI21400
aI22692
aI24269
aI25041
aI26550
aI28388
aI30130
aI31522
aI33071
aI34546
aI35835
aI38014
aI39429
aI40690
aI42854
aI44558
aI46436
aI47995
aI49512
aI50673
aI52643
aI54502
aI57579
aI58663
aI60501
aI62006
aI63082
aa(lp445
I0
aI0
aI0
aI0
aI4
aI295
aI1768
aI3958
aI9375
aI32396
aI92522
aI166011
aI234231
aI295239
aI350626
aI407390
aI473540
aI555707
aI651452
aI756358
aI867923
aI990179
aI1114477
aI1243618
aI1377008
aI1513766
aI1651400
aI1794140
aI1937356
aI2088564
aI2234348
aI2396168
aI2555210
aI2724110
aI2893177
aI3071549
aI3251792
aI3441452
aI3638236
aI3829221
aI4026284
aI4228335
aI4434963
aI4647476
aI4860317
aI5085178
aI5309035
aI5523170
aI5742264
aI5971813
aI6206122
aI6439001
aI6661026
aI6905330
aI7144139
aI7374932
aI7605587
aI7821031
aI8031618
aI8238447
aa(lp446
I0
aI0
aI0
aI0
aI0
aI0
aI0
aI0
aI0
aI0
aI1
aI0
aI5
aI3
aI14
aI33
aI147
aI376
aI657
aI784
aI772
aI781
aI775
aI891
aI892
aI929
aI980
aI953
aI1058
aI1070
aI1153
aI1103
aI1213
aI1382
aI1363
aI1427
aI1579
aI1684
aI1821
aI2121
aI2050
aI2212
aI2227
aI2575
aI2555
aI2742
aI2745
aI2845
aI2932
aI3265
aI3404
aI3436
aI3365
aI3382
aI3553
aI3618
aI3812
aI4038
aI4245
aI4218
aa(lp447
I0
aI0
aI0
aI0
aI0
aI0
aI0
aI0
aI0
aI0
aI0
aI0
aI1
aI2
aI12
aI19
aI97
aI254
aI457
aI522
aI603
aI672
aI788
aI826
aI910
aI913
aI972
aI1030
aI1145
aI1076
aI1308
aI1387
aI1549
aI1730
aI1893
aI2099
aI2211
aI2415
aI2571
aI2899
aI3107
aI3174
aI3363
aI3603
aI3863
aI4071
aI4322
aI4316
aI4310
aI4305
aI4366
aI4827
aI4803
aI4895
aI4985
aI5202
aI5434
aI5553
aI5595
aI5775
aa(lp448
I0
aI0
aI0
aI0
aI0
aI0
aI0
aI0
aI0
aI0
aI0
aI0
aI0
aI0
aI5
aI16
aI59
aI191
aI336
aI388
aI404
aI407
aI432
aI461
aI430
aI483
aI487
aI422
aI429
aI450
aI521
aI516
aI504
aI515
aI537
aI593
aI616
aI662
aI706
aI754
aI816
aI813
aI846
aI957
aI957
aI950
aI1030
aI1032
aI1096
aI1133
aI1149
aI1156
aI1143
aI1159
aI1193
aI1300
aI1286
aI1382
aI1485
aI1446
aa(lp449
I0
aI0
aI0
aI0
aI0
aI0
aI0
aI0
aI0
aI0
aI0
aI0
aI0
aI0
aI3
aI4
aI33
aI66
aI72
aI69
aI73
aI70
aI62
aI87
aI100
aI94
aI75
aI91
aI72
aI89
aI83
aI102
aI109
aI138
aI117
aI138
aI154
aI203
aI216
aI200
aI206
aI255
aI183
aI219
aI232
aI223
aI257
aI270
aI290
aI258
aI282
aI287
aI317
aI291
aI318
aI282
aI295
aI308
aI302
aI338
aa(lp450
I0
aI0
aI0
aI0
aI0
aI0
aI0
aI0
aI0
aI0
aI0
aI0
aI0
aI0
aI0
aI1
aI10
aI11
aI9
aI14
aI12
aI16
aI20
aI27
aI27
aI40
aI43
aI59
aI52
aI39
aI43
aI37
aI45
aI51
aI52
aI65
aI66
aI106
aI147
aI125
aI105
aI85
aI96
aI115
aI95
aI119
aI103
aI138
aI136
aI148
aI162
aI177
aI196
aI153
aI180
aI191
aI213
aI212
aI202
aI199
aa(lp451
I0
aI0
aI0
aI0
aI0
aI0
aI0
aI0
aI0
aI0
aI0
aI0
aI0
aI0
aI1
aI1
aI6
aI15
aI30
aI44
aI26
aI36
aI36
aI48
aI53
aI37
aI42
aI48
aI38
aI55
aI64
aI50
aI61
aI62
aI66
aI56
aI79
aI83
aI85
aI79
aI86
aI85
aI102
aI110
aI126
aI162
aI163
aI174
aI155
aI150
aI140
aI207
aI169
aI210
aI203
aI196
aI228
aI249
aI310
aI339
aa(lp452
I0
aI0
aI0
aI0
aI0
aI0
aI0
aI0
aI0
aI0
aI0
aI0
aI0
aI0
aI6
aI3
aI13
aI20
aI19
aI30
aI40
aI24
aI31
aI36
aI45
aI40
aI53
aI47
aI58
aI42
aI56
aI50
aI71
aI78
aI66
aI79
aI81
aI75
aI69
aI91
aI87
aI111
aI124
aI105
aI112
aI127
aI143
aI175
aI180
aI199
aI180
aI189
aI215
aI201
aI195
aI193
aI197
aI233
aI228
aI282
aa(lp453
I0
aI0
aI0
aI0
aI0
aI0
aI0
aI0
aI0
aI0
aI0
aI0
aI1
aI3
aI8
aI25
aI66
aI187
aI203
aI209
aI198
aI258
aI261
aI288
aI354
aI476
aI478
aI515
aI536
aI628
aI631
aI667
aI696
aI758
aI905
aI961
aI979
aI1122
aI1212
aI1348
aI1486
aI1576
aI1633
aI1783
aI1849
aI2023
aI2040
aI2033
aI2038
aI2051
aI1998
aI2157
aI2167
aI2203
aI2331
aI2359
aI2606
aI2737
aI2740
aI2750
aa(lp454
I0
aI0
aI0
aI0
aI0
aI0
aI0
aI0
aI0
aI0
aI0
aI0
aI0
aI0
aI0
aI0
aI2
aI3
aI0
aI0
aI2
aI2
aI4
aI3
aI2
aI4
aI7
aI3
aI0
aI8
aI9
aI11
aI9
aI7
aI7
aI6
aI8
aI7
aI7
aI7
aI10
aI8
aI5
aI5
aI10
aI6
aI15
aI7
aI0
aI15
aI12
aI25
aI21
aI12
aI8
aI6
aI7
aI1
aI9
aI8
aa(lp455
I0
aI0
aI0
aI0
aI0
aI0
aI0
aI0
aI0
aI0
aI0
aI0
aI0
aI1
aI2
aI11
aI25
aI19
aI13
aI33
aI33
aI55
aI73
aI44
aI59
aI53
aI60
aI71
aI98
aI114
aI106
aI99
aI87
aI101
aI98
aI160
aI184
aI190
aI198
aI172
aI137
aI193
aI219
aI249
aI225
aI259
aI236
aI219
aI230
aI261
aI285
aI305
aI269
aI335
aI379
aI354
aI375
aI381
aI420
aI385
aa(lp456
I0
aI0
aI0
aI0
aI0
aI0
aI0
aI0
aI0
aI0
aI1
aI0
aI1
aI8
aI17
aI64
aI122
aI190
aI224
aI190
aI164
aI191
aI184
aI235
aI257
aI315
aI384
aI410
aI553
aI631
aI700
aI615
aI707
aI815
aI952
aI1063
aI1152
aI1182
aI1249
aI1234
aI1255
aI1275
aI1414
aI1527
aI1684
aI1754
aI1812
aI1836
aI1778
aI2007
aI2110
aI2257
aI2251
aI2256
aI2425
aI2399
aI2692
aI2632
aI2593
aI2662
aa(lp457
I0
aI0
aI0
aI0
aI0
aI0
aI0
aI0
aI0
aI0
aI0
aI0
aI1
aI3
aI8
aI16
aI33
aI66
aI75
aI78
aI65
aI63
aI47
aI48
aI56
aI70
aI68
aI98
aI92
aI103
aI101
aI101
aI110
aI168
aI156
aI148
aI188
aI169
aI142
aI189
aI184
aI199
aI217
aI207
aI268
aI243
aI253
aI241
aI243
aI276
aI272
aI293
aI307
aI305
aI342
aI337
aI381
aI398
aI453
aI440
aa(lp458
I0
aI0
aI0
aI0
aI0
aI1
aI0
aI2
aI0
aI0
aI1
aI2
aI4
aI9
aI19
aI51
aI67
aI93
aI114
aI105
aI111
aI160
aI150
aI119
aI151
aI141
aI130
aI165
aI222
aI192
aI169
aI213
aI223
aI259
aI298
aI310
aI395
aI465
aI444
aI443
aI466
aI490
aI480
aI504
aI501
aI539
aI557
aI632
aI608
aI610
aI638
aI603
aI750
aI706
aI724
aI855
aI972
aI823
aI806
aI924
aa(lp459
I0
aI0
aI0
aI0
aI0
aI0
aI0
aI0
aI0
aI0
aI0
aI0
aI0
aI0
aI1
aI5
aI10
aI20
aI17
aI26
aI39
aI28
aI22
aI23
aI25
aI39
aI20
aI24
aI26
aI25
aI27
aI26
aI29
aI37
aI43
aI44
aI36
aI58
aI57
aI76
aI70
aI91
aI69
aI73
aI98
aI110
aI125
aI71
aI50
aI79
aI91
aI126
aI108
aI112
aI104
aI109
aI133
aI105
aI123
aI86
aa(lp460
I0
aI0
aI0
aI0
aI0
aI0
aI0
aI0
aI0
aI0
aI0
aI0
aI0
aI0
aI0
aI0
aI2
aI3
aI4
aI3
aI5
aI9
aI11
aI7
aI7
aI1
aI6
aI4
aI4
aI6
aI7
aI8
aI9
aI5
aI6
aI9
aI13
aI10
aI12
aI20
aI13
aI17
aI13
aI20
aI25
aI21
aI25
aI25
aI27
aI22
aI27
aI20
aI17
aI15
aI12
aI37
aI23
aI15
aI25
aI27
aa(lp461
I0
aI0
aI0
aI0
aI0
aI0
aI0
aI0
aI0
aI0
aI0
aI0
aI0
aI0
aI1
aI2
aI3
aI6
aI15
aI18
aI16
aI16
aI15
aI13
aI17
aI20
aI40
aI28
aI35
aI32
aI43
aI34
aI50
aI48
aI59
aI46
aI49
aI66
aI70
aI73
aI73
aI94
aI114
aI94
aI111
aI136
aI139
aI132
aI196
aI136
aI113
aI115
aI131
aI111
aI164
aI161
aI153
aI147
aI120
aI149
aa(lp462
I0
aI0
aI0
aI0
aI0
aI2
aI3
aI3
aI5
aI13
aI23
aI82
aI275
aI750
aI1174
aI1480
aI1734
aI1832
aI2075
aI2179
aI2378
aI2664
aI2844
aI3234
aI3473
aI3689
aI4080
aI4505
aI4645
aI4978
aI5500
aI5827
aI6236
aI6659
aI7081
aI7489
aI8023
aI8369
aI8773
aI9502
aI10151
aI10554
aI11117
aI11634
aI11885
aI12463
aI13149
aI13721
aI14327
aI14753
aI15101
aI15861
aI16605
aI17245
aI17913
aI18399
aI18720
aI18866
aI19701
aI20093
aa(lp463
I0
aI0
aI0
aI0
aI0
aI0
aI0
aI0
aI0
aI1
aI1
aI2
aI3
aI15
aI76
aI303
aI672
aI884
aI972
aI1089
aI1104
aI1226
aI1399
aI1468
aI1644
aI1698
aI1922
aI1966
aI1984
aI2129
aI2120
aI2174
aI2356
aI2481
aI2608
aI2954
aI3091
aI3276
aI3535
aI3722
aI3866
aI4124
aI4373
aI4566
aI4810
aI4941
aI5195
aI5556
aI5641
aI5631
aI6029
aI6220
aI6313
aI6593
aI6827
aI7081
aI7511
aI7783
aI8071
aI8047
aa(lp464
I0
aI0
aI0
aI0
aI0
aI0
aI0
aI0
aI0
aI1
aI1
aI1
aI5
aI8
aI76
aI237
aI456
aI631
aI790
aI908
aI924
aI1076
aI1169
aI1225
aI1453
aI1634
aI1824
aI2227
aI2360
aI2540
aI2780
aI2962
aI3283
aI3393
aI3741
aI4018
aI4326
aI4692
aI5082
aI5599
aI5568
aI6016
aI6170
aI6591
aI6983
aI7266
aI7487
aI7899
aI7982
aI8233
aI8584
aI8829
aI9328
aI9356
aI9747
aI9873
aI10216
aI10550
aI10753
aI11045
aa(lp465
I0
aI0
aI0
aI0
aI0
aI0
aI0
aI0
aI0
aI0
aI0
aI0
aI1
aI1
aI20
aI78
aI240
aI325
aI415
aI438
aI507
aI591
aI581
aI634
aI726
aI764
aI884
aI918
aI989
aI983
aI934
aI967
aI1024
aI1173
aI1160
aI1208
aI1171
aI1236
aI1399
aI1460
aI1507
aI1430
aI1514
aI1705
aI1711
aI1787
aI1783
aI1801
aI1882
aI1832
aI2006
aI2146
aI2241
aI2183
aI2237
aI2255
aI2498
aI2476
aI2403
aI2465
aa(lp466
I0
aI0
aI0
aI0
aI0
aI0
aI0
aI0
aI0
aI0
aI0
aI0
aI0
aI1
aI6
aI24
aI48
aI76
aI78
aI90
aI89
aI146
aI169
aI169
aI172
aI188
aI191
aI223
aI246
aI239
aI243
aI250
aI256
aI277
aI246
aI276
aI291
aI279
aI335
aI365
aI365
aI364
aI379
aI373
aI412
aI469
aI452
aI488
aI507
aI509
aI569
aI520
aI520
aI604
aI544
aI605
aI645
aI683
aI655
aI747
aa(lp467
I0
aI0
aI0
aI0
aI0
aI0
aI0
aI0
aI0
aI0
aI0
aI0
aI0
aI1
aI4
aI16
aI18
aI24
aI33
aI40
aI51
aI48
aI65
aI64
aI68
aI67
aI76
aI76
aI105
aI99
aI111
aI114
aI125
aI110
aI132
aI125
aI142
aI159
aI187
aI172
aI191
aI231
aI251
aI271
aI280
aI282
aI243
aI241
aI254
aI262
aI312
aI336
aI317
aI377
aI318
aI343
aI395
aI415
aI351
aI403
aa(lp468
I0
aI0
aI0
aI0
aI0
aI0
aI0
aI0
aI0
aI0
aI0
aI0
aI1
aI2
aI12
aI35
aI58
aI76
aI65
aI58
aI90
aI102
aI84
aI82
aI62
aI65
aI94
aI119
aI127
aI151
aI129
aI139
aI127
aI119
aI116
aI142
aI131
aI131
aI151
aI195
aI210
aI200
aI199
aI178
aI220
aI234
aI242
aI258
aI317
aI309
aI295
aI318
aI329
aI366
aI372
aI407
aI454
aI511
aI651
aI648
aa(lp469
I0
aI0
aI0
aI0
aI0
aI0
aI0
aI0
aI0
aI0
aI1
aI0
aI17
aI55
aI54
aI76
aI72
aI84
aI78
aI80
aI66
aI73
aI77
aI107
aI126
aI140
aI174
aI153
aI145
aI142
aI137
aI106
aI135
aI148
aI171
aI184
aI187
aI178
aI212
aI212
aI204
aI246
aI257
aI246
aI271
aI318
aI335
aI304
aI346
aI350
aI389
aI371
aI401
aI437
aI434
aI456
aI483
aI495
aI460
aI579
aa(lp470
I0
aI0
aI0
aI0
aI0
aI0
aI0
aI0
aI1
aI0
aI0
aI2
aI21
aI88
aI129
aI160
aI242
aI244
aI289
aI316
aI356
aI399
aI486
aI571
aI690
aI820
aI946
aI978
aI1197
aI1198
aI1279
aI1380
aI1536
aI1637
aI1873
aI1948
aI2057
aI2220
aI2316
aI2512
aI2640
aI2831
aI2918
aI3159
aI3344
aI3581
aI3698
aI3725
aI3740
aI3995
aI4204
aI4366
aI4387
aI4578
aI4608
aI4593
aI4783
aI4908
aI5041
aI5187
aa(lp471
I0
aI0
aI0
aI0
aI0
aI0
aI0
aI0
aI2
aI23
aI12
aI8
aI9
aI5
aI5
aI6
aI9
aI8
aI18
aI6
aI13
aI28
aI26
aI33
aI24
aI29
aI16
aI7
aI6
aI5
aI5
aI7
aI5
aI13
aI14
aI9
aI9
aI7
aI6
aI11
aI5
aI11
aI8
aI7
aI16
aI9
aI10
aI12
aI12
aI23
aI25
aI18
aI16
aI23
aI14
aI17
aI10
aI19
aI14
aI0
aa(lp472
I0
aI0
aI0
aI0
aI0
aI0
aI0
aI0
aI0
aI0
aI0
aI2
aI18
aI35
aI38
aI44
aI51
aI45
aI50
aI56
aI85
aI99
aI95
aI108
aI154
aI179
aI188
aI193
aI207
aI187
aI185
aI221
aI177
aI222
aI277
aI308
aI305
aI376
aI444
aI402
aI403
aI363
aI427
aI448
aI487
aI514
aI513
aI513
aI529
aI552
aI575
aI632
aI652
aI599
aI650
aI698
aI643
aI719
aI720
aI720
aa(lp473
I0
aI0
aI0
aI0
aI0
aI0
aI0
aI0
aI0
aI1
aI0
aI3
aI13
aI43
aI58
aI147
aI200
aI253
aI288
aI338
aI395
aI454
aI496
aI590
aI645
aI743
aI782
aI796
aI917
aI1044
aI1140
aI1243
aI1415
aI1657
aI1760
aI2023
aI2040
aI2281
aI2294
aI2451
aI2558
aI2641
aI2749
aI2966
aI2997
aI3144
aI3304
aI3408
aI3604
aI3673
aI3861
aI3993
aI4136
aI4381
aI4464
aI4585
aI4699
aI4881
aI4970
aI5143
aa(lp474
I0
aI0
aI0
aI0
aI0
aI0
aI0
aI0
aI0
aI1
aI2
aI6
aI59
aI104
aI93
aI68
aI82
aI115
aI97
aI123
aI126
aI116
aI163
aI197
aI197
aI197
aI193
aI196
aI213
aI201
aI227
aI240
aI245
aI253
aI273
aI291
aI302
aI287
aI283
aI354
aI381
aI393
aI382
aI430
aI484
aI452
aI473
aI554
aI534
aI554
aI652
aI570
aI626
aI647
aI716
aI667
aI710
aI714
aI722
aI777
aa(lp475
I0
aI0
aI0
aI0
aI0
aI0
aI0
aI0
aI1
aI0
aI1
aI14
aI59
aI160
aI130
aI178
aI168
aI213
aI181
aI183
aI175
aI209
aI211
aI231
aI261
aI340
aI364
aI356
aI373
aI417
aI406
aI440
aI532
aI517
aI619
aI681
aI705
aI829
aI817
aI872
aI851
aI960
aI994
aI1073
aI1100
aI1171
aI1175
aI1219
aI1368
aI1311
aI1358
aI1449
aI1519
aI1579
aI1613
aI1657
aI1763
aI1732
aI1907
aI1962
aa(lp476
I0
aI0
aI0
aI0
aI0
aI0
aI0
aI0
aI0
aI0
aI0
aI0
aI0
aI1
aI3
aI5
aI9
aI26
aI43
aI44
aI32
aI51
aI54
aI55
aI54
aI52
aI71
aI77
aI49
aI71
aI83
aI93
aI76
aI90
aI101
aI95
aI90
aI85
aI105
aI113
aI93
aI99
aI97
aI140
aI126
aI90
aI140
aI126
aI127
aI109
aI143
aI154
aI171
aI165
aI179
aI183
aI157
aI177
aI167
aI220
aa(lp477
I0
aI0
aI0
aI0
aI0
aI0
aI0
aI0
aI0
aI0
aI0
aI0
aI0
aI0
aI2
aI7
aI4
aI7
aI17
aI12
aI9
aI8
aI13
aI15
aI17
aI6
aI19
aI34
aI38
aI45
aI29
aI21
aI35
aI23
aI31
aI22
aI29
aI23
aI26
aI20
aI29
aI46
aI27
aI36
aI55
aI70
aI62
aI54
aI60
aI41
aI54
aI55
aI34
aI58
aI62
aI68
aI49
aI47
aI42
aI71
aa(lp478
I0
aI0
aI0
aI0
aI0
aI0
aI0
aI0
aI0
aI0
aI0
aI0
aI0
aI2
aI2
aI5
aI14
aI13
aI22
aI15
aI18
aI35
aI36
aI34
aI50
aI61
aI80
aI68
aI67
aI77
aI72
aI90
aI99
aI118
aI116
aI131
aI129
aI117
aI116
aI137
aI119
aI129
aI167
aI165
aI147
aI192
aI202
aI196
aI206
aI220
aI265
aI280
aI243
aI274
aI306
aI296
aI269
aI268
aI308
aI346
aa(lp479
I0
aI0
aI0
aI0
aI0
aI3
aI6
aI33
aI94
aI172
aI271
aI759
aI1261
aI1828
aI2261
aI2497
aI2872
aI3119
aI3453
aI4014
aI4606
aI5204
aI5730
aI6550
aI7050
aI7474
aI8043
aI8735
aI9365
aI9869
aI10577
aI11484
aI12165
aI12871
aI13736
aI14382
aI15586
aI16461
aI17307
aI18355
aI19166
aI20120
aI20898
aI22291
aI23418
aI24342
aI25337
aI26289
aI27555
aI28654
aI29304
aI30635
aI31270
aI32537
aI33602
aI34941
aI35894
aI37165
aI38385
aI39718
aa(lp480
I0
aI0
aI0
aI0
aI0
aI1
aI0
aI0
aI0
aI0
aI0
aI0
aI1
aI1
aI9
aI7
aI26
aI63
aI172
aI289
aI304
aI267
aI281
aI273
aI343
aI293
aI337
aI308
aI291
aI335
aI346
aI380
aI348
aI357
aI369
aI471
aI458
aI471
aI487
aI527
aI588
aI629
aI706
aI696
aI814
aI871
aI892
aI965
aI1024
aI1053
aI1051
aI1035
aI1104
aI1186
aI1193
aI1221
aI1166
aI1232
aI1305
aI1271
aa(lp481
I0
aI0
aI0
aI0
aI0
aI0
aI0
aI0
aI0
aI0
aI0
aI0
aI0
aI0
aI1
aI0
aI10
aI36
aI92
aI149
aI147
aI152
aI140
aI218
aI222
aI252
aI324
aI338
aI377
aI384
aI381
aI433
aI445
aI487
aI609
aI625
aI673
aI838
aI866
aI877
aI958
aI1050
aI1073
aI1191
aI1143
aI1185
aI1189
aI1252
aI1318
aI1246
aI1356
aI1344
aI1447
aI1422
aI1488
aI1427
aI1508
aI1517
aI1555
aI1535
aa(lp482
I0
aI0
aI0
aI0
aI0
aI0
aI0
aI0
aI0
aI0
aI0
aI0
aI0
aI0
aI0
aI0
aI16
aI47
aI60
aI118
aI107
aI100
aI93
aI118
aI142
aI138
aI145
aI142
aI157
aI151
aI164
aI190
aI179
aI189
aI148
aI159
aI158
aI179
aI225
aI212
aI196
aI234
aI203
aI236
aI232
aI265
aI259
aI327
aI284
aI316
aI342
aI326
aI334
aI337
aI391
aI391
aI460
aI407
aI452
aI397
aa(lp483
I0
aI0
aI0
aI0
aI0
aI0
aI0
aI0
aI0
aI0
aI0
aI0
aI0
aI0
aI1
aI0
aI0
aI8
aI12
aI14
aI23
aI27
aI21
aI45
aI27
aI22
aI15
aI20
aI29
aI28
aI16
aI19
aI39
aI29
aI38
aI42
aI46
aI56
aI44
aI37
aI59
aI50
aI63
aI46
aI57
aI70
aI66
aI90
aI94
aI81
aI58
aI103
aI113
aI99
aI86
aI86
aI91
aI74
aI96
aI97
aa(lp484
I0
aI0
aI0
aI0
aI0
aI0
aI0
aI0
aI0
aI0
aI0
aI0
aI0
aI0
aI0
aI3
aI3
aI3
aI5
aI12
aI9
aI4
aI8
aI13
aI8
aI9
aI10
aI15
aI9
aI16
aI20
aI13
aI12
aI20
aI21
aI21
aI19
aI40
aI28
aI34
aI40
aI32
aI34
aI42
aI38
aI45
aI50
aI55
aI30
aI50
aI53
aI78
aI50
aI70
aI68
aI63
aI56
aI57
aI63
aI64
aa(lp485
I0
aI0
aI0
aI0
aI0
aI0
aI0
aI0
aI0
aI0
aI0
aI0
aI0
aI0
aI0
aI1
aI0
aI8
aI16
aI12
aI11
aI17
aI15
aI17
aI18
aI14
aI15
aI14
aI17
aI15
aI19
aI21
aI26
aI22
aI18
aI21
aI16
aI15
aI20
aI24
aI21
aI47
aI53
aI34
aI48
aI35
aI49
aI56
aI40
aI43
aI47
aI54
aI66
aI65
aI79
aI87
aI85
aI91
aI109
aI123
aa(lp486
I0
aI0
aI0
aI0
aI0
aI0
aI0
aI0
aI0
aI0
aI0
aI0
aI0
aI0
aI0
aI4
aI3
aI18
aI14
aI11
aI13
aI19
aI11
aI16
aI18
aI23
aI24
aI9
aI20
aI12
aI22
aI19
aI23
aI24
aI29
aI29
aI33
aI34
aI32
aI36
aI26
aI39
aI46
aI66
aI42
aI56
aI45
aI66
aI73
aI55
aI48
aI64
aI57
aI82
aI76
aI89
aI94
aI79
aI97
aI119
aa(lp487
I0
aI0
aI0
aI0
aI0
aI0
aI0
aI0
aI0
aI0
aI0
aI0
aI0
aI0
aI2
aI6
aI2
aI20
aI42
aI50
aI59
aI62
aI69
aI74
aI89
aI101
aI138
aI120
aI167
aI170
aI193
aI231
aI283
aI252
aI299
aI363
aI369
aI368
aI407
aI434
aI417
aI467
aI477
aI499
aI513
aI620
aI613
aI649
aI657
aI692
aI657
aI661
aI675
aI654
aI611
aI660
aI689
aI671
aI699
aI802
aa(lp488
I0
aI0
aI0
aI0
aI0
aI0
aI0
aI0
aI0
aI0
aI0
aI0
aI0
aI0
aI0
aI1
aI0
aI0
aI0
aI1
aI0
aI1
aI0
aI1
aI2
aI1
aI0
aI0
aI1
aI0
aI1
aI1
aI1
aI0
aI0
aI0
aI0
aI0
aI2
aI1
aI0
aI0
aI3
aI0
aI1
aI0
aI0
aI0
aI1
aI1
aI0
aI3
aI1
aI0
aI2
aI1
aI2
aI0
aI1
aI1
aa(lp489
I0
aI0
aI0
aI0
aI0
aI0
aI0
aI0
aI0
aI0
aI0
aI1
aI0
aI1
aI3
aI4
aI9
aI8
aI5
aI15
aI20
aI24
aI11
aI18
aI24
aI25
aI17
aI23
aI20
aI28
aI34
aI39
aI42
aI49
aI37
aI43
aI48
aI42
aI55
aI70
aI65
aI64
aI67
aI62
aI78
aI103
aI88
aI87
aI95
aI83
aI86
aI121
aI121
aI137
aI116
aI114
aI109
aI119
aI117
aI167
aa(lp490
I0
aI0
aI0
aI0
aI0
aI0
aI0
aI0
aI0
aI0
aI0
aI0
aI0
aI3
aI8
aI13
aI33
aI26
aI36
aI33
aI48
aI54
aI60
aI73
aI83
aI78
aI106
aI121
aI133
aI132
aI175
aI196
aI246
aI251
aI264
aI276
aI344
aI374
aI442
aI485
aI454
aI464
aI486
aI473
aI534
aI478
aI507
aI585
aI571
aI605
aI601
aI597
aI637
aI662
aI679
aI657
aI733
aI738
aI728
aI757
aa(lp491
I0
aI0
aI0
aI0
aI0
aI0
aI0
aI0
aI0
aI0
aI0
aI0
aI1
aI2
aI11
aI7
aI9
aI13
aI11
aI12
aI15
aI17
aI12
aI19
aI16
aI28
aI21
aI24
aI29
aI19
aI25
aI34
aI36
aI34
aI35
aI40
aI27
aI50
aI43
aI54
aI59
aI55
aI61
aI65
aI72
aI71
aI70
aI83
aI101
aI72
aI94
aI105
aI97
aI92
aI79
aI93
aI105
aI102
aI123
aI104
aa(lp492
I0
aI0
aI0
aI0
aI0
aI0
aI0
aI2
aI0
aI1
aI0
aI0
aI2
aI4
aI9
aI22
aI33
aI50
aI41
aI36
aI40
aI52
aI30
aI41
aI41
aI47
aI49
aI57
aI55
aI77
aI68
aI86
aI81
aI100
aI102
aI101
aI132
aI141
aI152
aI136
aI143
aI142
aI151
aI164
aI192
aI204
aI163
aI198
aI198
aI198
aI235
aI226
aI244
aI259
aI282
aI281
aI321
aI299
aI327
aI324
aa(lp493
I0
aI0
aI0
aI0
aI0
aI0
aI0
aI0
aI0
aI0
aI0
aI0
aI0
aI0
aI0
aI0
aI2
aI3
aI10
aI8
aI6
aI6
aI7
aI8
aI12
aI13
aI10
aI13
aI10
aI7
aI10
aI7
aI14
aI12
aI10
aI7
aI4
aI8
aI9
aI13
aI13
aI9
aI6
aI8
aI7
aI17
aI8
aI16
aI16
aI13
aI17
aI22
aI28
aI19
aI14
aI10
aI17
aI21
aI19
aI17
aa(lp494
I0
aI0
aI0
aI0
aI0
aI0
aI0
aI0
aI0
aI0
aI0
aI0
aI0
aI0
aI0
aI0
aI0
aI1
aI0
aI1
aI11
aI1
aI1
aI14
aI2
aI0
aI3
aI1
aI1
aI1
aI1
aI1
aI6
aI8
aI2
aI3
aI2
aI0
aI1
aI3
aI1
aI2
aI3
aI7
aI2
aI4
aI2
aI5
aI14
aI20
aI13
aI7
aI11
aI11
aI11
aI12
aI12
aI6
aI12
aI10
aa(lp495
I0
aI0
aI0
aI0
aI0
aI0
aI0
aI0
aI0
aI0
aI0
aI0
aI0
aI0
aI0
aI0
aI0
aI0
aI4
aI4
aI7
aI1
aI5
aI4
aI4
aI8
aI11
aI5
aI11
aI20
aI11
aI20
aI12
aI4
aI10
aI25
aI16
aI12
aI25
aI16
aI30
aI27
aI32
aI30
aI21
aI34
aI37
aI40
aI25
aI32
aI20
aI32
aI31
aI27
aI24
aI40
aI34
aI38
aI48
aI37
aa(lp496
I0
aI0
aI0
aI0
aI0
aI0
aI2
aI2
aI3
aI8
aI19
aI24
aI80
aI156
aI268
aI458
aI562
aI619
aI709
aI680
aI750
aI828
aI896
aI1036
aI1137
aI1137
aI1264
aI1391
aI1501
aI1543
aI1717
aI1758
aI1903
aI2061
aI2207
aI2278
aI2390
aI2477
aI2709
aI2697
aI3035
aI3129
aI3413
aI3685
aI3752
aI3915
aI4087
aI4375
aI4440
aI4566
aI4828
aI4908
aI5126
aI5255
aI5586
aI5548
aI5762
aI5969
aI6348
aI6377
aa(lp497
I0
aI0
aI0
aI0
aI0
aI0
aI0
aI0
aI0
aI0
aI0
aI0
aI0
aI0
aI1
aI5
aI9
aI15
aI55
aI67
aI124
aI133
aI147
aI123
aI173
aI149
aI185
aI170
aI173
aI157
aI159
aI179
aI147
aI160
aI164
aI184
aI229
aI252
aI225
aI276
aI275
aI342
aI339
aI389
aI418
aI426
aI385
aI401
aI471
aI423
aI485
aI523
aI507
aI495
aI502
aI527
aI515
aI489
aI569
aI651
aa(lp498
I0
aI0
aI0
aI0
aI0
aI0
aI0
aI0
aI0
aI0
aI0
aI0
aI0
aI0
aI1
aI0
aI6
aI14
aI41
aI70
aI87
aI82
aI113
aI111
aI126
aI134
aI169
aI143
aI175
aI153
aI175
aI172
aI213
aI217
aI237
aI291
aI315
aI300
aI378
aI393
aI416
aI462
aI452
aI520
aI578
aI565
aI583
aI629
aI661
aI709
aI693
aI751
aI707
aI684
aI774
aI763
aI753
aI773
aI715
aI788
aa(lp499
I0
aI0
aI0
aI0
aI0
aI0
aI0
aI0
aI0
aI0
aI0
aI0
aI0
aI0
aI0
aI1
aI6
aI6
aI17
aI35
aI43
aI49
aI41
aI43
aI45
aI68
aI76
aI64
aI83
aI67
aI94
aI75
aI81
aI84
aI72
aI69
aI60
aI84
aI93
aI73
aI66
aI94
aI80
aI83
aI104
aI105
aI131
aI127
aI143
aI144
aI141
aI156
aI141
aI173
aI140
aI156
aI154
aI151
aI219
aI186
aa(lp500
I0
aI0
aI0
aI0
aI0
aI0
aI0
aI0
aI0
aI0
aI0
aI0
aI0
aI0
aI0
aI0
aI0
aI0
aI1
aI10
aI6
aI11
aI10
aI19
aI7
aI23
aI16
aI10
aI5
aI12
aI12
aI21
aI12
aI18
aI17
aI11
aI12
aI10
aI14
aI11
aI16
aI19
aI28
aI23
aI36
aI24
aI29
aI33
aI48
aI32
aI52
aI54
aI48
aI56
aI43
aI40
aI37
aI26
aI30
aI40
aa(lp501
I0
aI0
aI0
aI0
aI0
aI0
aI0
aI0
aI0
aI0
aI0
aI0
aI0
aI0
aI0
aI0
aI1
aI2
aI0
aI1
aI1
aI2
aI5
aI0
aI3
aI5
aI4
aI6
aI3
aI3
aI8
aI8
aI7
aI8
aI11
aI18
aI19
aI8
aI12
aI14
aI12
aI15
aI25
aI25
aI27
aI13
aI20
aI15
aI17
aI22
aI24
aI15
aI24
aI26
aI28
aI24
aI29
aI31
aI21
aI18
aa(lp502
I0
aI0
aI0
aI0
aI0
aI0
aI0
aI0
aI0
aI0
aI0
aI0
aI0
aI1
aI1
aI0
aI1
aI1
aI2
aI3
aI12
aI9
aI4
aI14
aI12
aI5
aI11
aI20
aI10
aI8
aI7
aI8
aI12
aI10
aI11
aI8
aI10
aI10
aI12
aI10
aI9
aI19
aI18
aI20
aI25
aI25
aI29
aI34
aI28
aI27
aI19
aI24
aI25
aI25
aI28
aI35
aI49
aI46
aI48
aI48
aa(lp503
I0
aI0
aI0
aI0
aI0
aI0
aI0
aI0
aI0
aI0
aI0
aI0
aI1
aI1
aI0
aI0
aI3
aI1
aI2
aI6
aI9
aI3
aI11
aI12
aI10
aI8
aI12
aI16
aI22
aI9
aI20
aI9
aI15
aI8
aI14
aI9
aI16
aI16
aI7
aI17
aI28
aI26
aI26
aI21
aI21
aI22
aI26
aI26
aI45
aI39
aI32
aI23
aI32
aI29
aI37
aI32
aI22
aI25
aI24
aI45
aa(lp504
I0
aI0
aI0
aI0
aI0
aI0
aI0
aI0
aI0
aI0
aI0
aI0
aI0
aI0
aI0
aI0
aI3
aI14
aI32
aI27
aI19
aI44
aI37
aI46
aI47
aI66
aI64
aI66
aI73
aI78
aI87
aI108
aI100
aI107
aI122
aI164
aI123
aI154
aI160
aI193
aI186
aI211
aI197
aI201
aI254
aI326
aI277
aI279
aI293
aI298
aI342
aI353
aI350
aI375
aI307
aI331
aI343
aI358
aI380
aI357
aa(lp505
I0
aI0
aI0
aI0
aI0
aI0
aI0
aI0
aI0
aI0
aI0
aI0
aI0
aI0
aI1
aI0
aI0
aI0
aI0
aI0
aI0
aI1
aI0
aI1
aI0
aI1
aI1
aI0
aI0
aI1
aI2
aI1
aI0
aI0
aI0
aI1
aI0
aI1
aI0
aI1
aI0
aI0
aI2
aI0
aI1
aI0
aI0
aI3
aI1
aI3
aI2
aI1
aI2
aI1
aI2
aI3
aI1
aI2
aI2
aI0
aa(lp506
I0
aI0
aI0
aI0
aI0
aI0
aI0
aI0
aI0
aI0
aI0
aI0
aI0
aI0
aI0
aI0
aI2
aI2
aI3
aI3
aI3
aI4
aI3
aI5
aI6
aI7
aI6
aI12
aI9
aI6
aI14
aI18
aI25
aI26
aI23
aI14
aI25
aI30
aI21
aI41
aI36
aI34
aI22
aI25
aI30
aI32
aI32
aI34
aI38
aI64
aI44
aI41
aI32
aI31
aI59
aI46
aI44
aI56
aI65
aI61
aa(lp507
I0
aI0
aI0
aI0
aI0
aI0
aI0
aI0
aI0
aI0
aI0
aI0
aI0
aI0
aI2
aI11
aI15
aI17
aI22
aI30
aI25
aI26
aI37
aI38
aI41
aI37
aI62
aI50
aI61
aI75
aI91
aI83
aI103
aI119
aI125
aI113
aI160
aI141
aI176
aI163
aI225
aI206
aI215
aI201
aI267
aI242
aI243
aI259
aI281
aI257
aI284
aI334
aI327
aI343
aI365
aI331
aI356
aI365
aI394
aI372
aa(lp508
I0
aI0
aI0
aI0
aI0
aI0
aI0
aI0
aI0
aI0
aI0
aI0
aI0
aI0
aI1
aI2
aI3
aI1
aI15
aI18
aI9
aI16
aI9
aI14
aI12
aI14
aI8
aI15
aI17
aI19
aI17
aI13
aI17
aI17
aI19
aI20
aI25
aI25
aI22
aI41
aI26
aI29
aI35
aI35
aI43
aI41
aI44
aI46
aI31
aI47
aI40
aI54
aI73
aI58
aI70
aI77
aI65
aI77
aI67
aI66
aa(lp509
I0
aI0
aI0
aI0
aI0
aI0
aI0
aI0
aI0
aI0
aI0
aI1
aI3
aI4
aI1
aI5
aI6
aI13
aI21
aI17
aI27
aI17
aI15
aI19
aI14
aI19
aI15
aI15
aI16
aI19
aI25
aI31
aI30
aI45
aI41
aI40
aI47
aI56
aI51
aI59
aI58
aI64
aI53
aI63
aI70
aI79
aI73
aI82
aI64
aI65
aI68
aI86
aI89
aI100
aI107
aI110
aI112
aI104
aI128
aI107
aa(lp510
I0
aI0
aI0
aI0
aI0
aI0
aI0
aI0
aI0
aI0
aI0
aI0
aI0
aI0
aI1
aI0
aI1
aI0
aI2
aI2
aI4
aI5
aI3
aI9
aI8
aI7
aI15
aI1
aI4
aI3
aI1
aI1
aI0
aI6
aI3
aI5
aI3
aI1
aI7
aI10
aI9
aI9
aI6
aI12
aI10
aI4
aI16
aI13
aI14
aI9
aI27
aI22
aI15
aI18
aI7
aI3
aI6
aI19
aI13
aI17
aa(lp511
I0
aI0
aI0
aI0
aI0
aI0
aI0
aI0
aI0
aI0
aI0
aI0
aI0
aI0
aI0
aI1
aI1
aI0
aI1
aI0
aI0
aI1
aI1
aI1
aI0
aI0
aI1
aI0
aI0
aI0
aI2
aI4
aI4
aI0
aI2
aI4
aI5
aI3
aI2
aI1
aI0
aI1
aI1
aI2
aI2
aI1
aI2
aI2
aI2
aI1
aI0
aI5
aI3
aI2
aI7
aI4
aI3
aI7
aI0
aI1
aa(lp512
I0
aI0
aI0
aI0
aI0
aI0
aI0
aI0
aI0
aI0
aI0
aI0
aI0
aI0
aI0
aI0
aI0
aI0
aI0
aI3
aI3
aI0
aI1
aI0
aI4
aI1
aI3
aI6
aI4
aI7
aI4
aI7
aI4
aI3
aI8
aI1
aI4
aI6
aI9
aI14
aI10
aI22
aI17
aI18
aI19
aI12
aI11
aI8
aI17
aI16
aI18
aI23
aI22
aI18
aI11
aI29
aI24
aI24
aI13
aI23
aa(lp513
I0
aI0
aI0
aI0
aI0
aI0
aI1
aI1
aI4
aI1
aI1
aI4
aI16
aI47
aI95
aI188
aI230
aI258
aI355
aI377
aI327
aI430
aI424
aI453
aI516
aI571
aI598
aI618
aI710
aI728
aI834
aI834
aI872
aI939
aI967
aI1028
aI1079
aI1165
aI1294
aI1369
aI1404
aI1496
aI1620
aI1736
aI1724
aI1779
aI1933
aI1944
aI2103
aI2127
aI2259
aI2270
aI2403
aI2475
aI2604
aI2657
aI2627
aI2760
aI2784
aI2847
aasS'v_nlj'
p514
(lp515
(lp516
I1736566
aI652611
aI647911
aI681880
aI617601
aI547992
aI471515
aI394494
aI332632
aa(lp517
I2550981
aI768166
aI602957
aI552654
aI456164
aI357960
aI264233
aI211447
aI168050
aa(lp518
I1019988
aI411194
aI366559
aI386373
aI330658
aI290209
aI231326
aI182584
aI136228
aa(lp519
I737690
aI316132
aI259745
aI240945
aI198277
aI151352
aI116609
aI86825
aI67335
aa(lp520
I186761
aI70048
aI68062
aI69915
aI62233
aI54341
aI48250
aI40780
aI34945
aa(lp521
I385913
aI178366
aI163256
aI155362
aI133922
aI110297
aI90187
aI71874
aI55555
aa(lp522
I127878
aI39375
aI32294
aI32179
aI29499
aI26392
aI22332
aI19248
aI15091
aa(lp523
I392133
aI120766
aI96828
aI94801
aI81224
aI68816
aI55515
aI45083
aI35541
aa(lp524
I5762
aI2389
aI2550
aI2427
aI2387
aI2037
aI1718
aI1228
aI750
aa(lp525
I214281
aI70018
aI59046
aI61839
aI53540
aI49387
aI41415
aI34741
aI27448
aa(lp526
I66102
aI26285
aI22849
aI21273
aI17657
aI13887
aI10205
aI7393
aI5612
aa(lp527
I21529
aI7823
aI6987
aI6364
aI5757
aI5286
aI3981
aI2605
aI1969
aa(lp528
I309047
aI135459
aI121866
aI130104
aI107833
aI104680
aI79368
aI60142
aI47665
aa(lp529
I454866
aI230956
aI169482
aI157944
aI120729
aI104826
aI69724
aI58214
aI42672
aa(lp530
I0
aI0
aI0
aI0
aI0
aI0
aI0
aI0
aI0
aa(lp531
I4943
aI1990
aI1698
aI1698
aI1354
aI1038
aI759
aI508
aI344
aa(lp532
I218786
aI84284
aI75804
aI68007
aI62658
aI56901
aI48998
aI41364
aI33873
aa(lp533
I318486
aI204650
aI170646
aI166439
aI140495
aI127570
aI100896
aI81974
aI61874
aa(lp534
I494296
aI169791
aI130192
aI126882
aI96116
aI75157
aI62971
aI51684
aI42364
aa(lp535
I33848
aI14334
aI12578
aI13767
aI8897
aI8327
aI6272
aI4598
aI3192
aa(lp536
I383108
aI203271
aI170336
aI170531
aI150551
aI124474
aI102789
aI76805
aI55446
aa(lp537
I1180479
aI473742
aI366733
aI332282
aI266337
aI221849
aI170510
aI131887
aI101957
aa(lp538
I161154
aI67388
aI71415
aI71033
aI57586
aI55734
aI41737
aI34467
aI22525
aa(lp539
I35476
aI18428
aI13709
aI11921
aI9362
aI8119
aI6573
aI4456
aI3303
aa(lp540
I11991
aI4728
aI3475
aI3601
aI3057
aI2483
aI1870
aI1571
aI1321
aa(lp541
I9140888
aI4046083
aI3284747
aI3306251
aI2865628
aI2559272
aI2129005
aI1726229
aI1403557
aa(lp542
I10150
aI7513
aI6644
aI6690
aI5413
aI5266
aI4306
aI3954
aI2772
aa(lp543
I23841
aI12394
aI10982
aI12231
aI10941
aI10889
aI9647
aI8170
aI6713
aa(lp544
I2976
aI2111
aI2029
aI2184
aI1671
aI1337
aI1160
aI843
aI617
aa(lp545
I1311
aI941
aI990
aI1043
aI703
aI440
aI387
aI262
aI213
aasS'v_nkj'
p546
(lp547
(lp548
I229019
aI762427
aI1268417
aI1788232
aI2507092
aI3408526
aI4338115
aI5203036
aI6021075
aa(lp549
I420607
aI1186334
aI1911407
aI2602040
aI3541517
aI4698321
aI5919727
aI7072751
aI8152360
aa(lp550
I183275
aI586935
aI961729
aI1382557
aI1924194
aI2554514
aI3201130
aI3814926
aI4406611
aa(lp551
I175050
aI479369
aI757999
aI1056969
aI1502319
aI1974225
aI2422092
aI2849737
aI3251514
aa(lp552
I23018
aI87565
aI152527
aI219203
aI306711
aI412330
aI526471
aI628922
aI727320
aa(lp553
I58406
aI166531
aI267134
aI377073
aI540033
aI733289
aI938041
aI1145615
aI1326623
aa(lp554
I55937
aI123469
aI177056
aI230675
aI324249
aI434041
aI537989
aI641939
aI752124
aa(lp555
I76969
aI187302
aI303589
aI417958
aI582086
aI774940
aI975225
aI1160713
aI1354256
aa(lp556
I3025
aI5906
aI7776
aI10873
aI16093
aI22053
aI27465
aI31828
aI38420
aa(lp557
I65222
aI124031
aI200373
aI264126
aI373361
aI496287
aI615631
aI734893
aI861701
aa(lp558
I5717
aI20943
aI41120
aI57478
aI79819
aI111151
aI144669
aI172960
aI199911
aa(lp559
I6097
aI15025
aI22689
aI29801
aI42656
aI58443
aI73084
aI87523
aI101103
aa(lp560
I81316
aI168857
aI272588
aI365748
aI512397
aI684365
aI872070
aI1037800
aI1196673
aa(lp561
I138411
aI320282
aI484036
aI704429
aI993819
aI1297853
aI1583133
aI1852098
aI2126636
aa(lp562
I0
aI0
aI0
aI0
aI0
aI0
aI0
aI0
aI0
aa(lp563
I467
aI1432
aI3052
aI4190
aI6125
aI8079
aI10996
aI13353
aI15301
aa(lp564
I155050
aI229402
aI343291
aI479992
aI675234
aI876526
aI1085299
aI1298605
aI1528628
aa(lp565
I122936
aI186031
aI265460
aI410763
aI608285
aI798353
aI982035
aI1199334
aI1417021
aa(lp566
I75239
aI184340
aI330431
aI460131
aI629931
aI846851
aI1061110
aI1262973
aI1470823
aa(lp567
I6630
aI27140
aI36813
aI45847
aI63412
aI93172
aI114974
aI135315
aI153191
aa(lp568
I173954
aI293432
aI485244
aI644295
aI907670
aI1193310
aI1514376
aI1823419
aI2146791
aa(lp569
I551015
aI833036
aI1278349
aI1798065
aI2515935
aI3259040
aI4019332
aI4798252
aI5611436
aa(lp570
I62742
aI151567
aI195739
aI265880
aI368057
aI511431
aI628941
aI761321
aI896151
aa(lp571
I8870
aI23076
aI37742
aI53123
aI77557
aI102896
aI126879
aI153634
aI176585
aa(lp572
I7945
aI13285
aI19126
aI27330
aI39436
aI50394
aI61733
aI74947
aI88345
aa(lp573
I3101192
aI4964117
aI8242287
aI12195921
aI16786373
aI21995202
aI27413350
aI32852774
aI38276000
aa(lp574
I7371
aI14803
aI20446
aI28284
aI42328
aI56791
aI70780
aI81100
aI95304
aa(lp575
I15510
aI25751
aI41745
aI57222
aI81501
aI105783
aI130901
aI156122
aI181042
aa(lp576
I1867
aI4391
aI6209
aI8798
aI12996
aI17258
aI21671
aI24793
aI27741
aa(lp577
I694
aI2175
aI3058
aI3923
aI5608
aI7984
aI10119
aI12054
aI13045
aasb.